
control_bat_temp_M16_v1.18.elf:     file format elf32-avr

Sections:
Idx Name          Size      VMA       LMA       File off  Algn
  0 .text         00003b5e  00000000  00000000  000000b4  2**1
                  CONTENTS, ALLOC, LOAD, READONLY, CODE
  1 .data         000000ac  00800060  00003b5e  00003c12  2**0
                  CONTENTS, ALLOC, LOAD, DATA
  2 .bss          000000c0  0080010c  0080010c  00003cbe  2**0
                  ALLOC
  3 .eeprom       0000001c  00810000  00810000  00003cbe  2**0
                  CONTENTS, ALLOC, LOAD, DATA
  4 .comment      0000005c  00000000  00000000  00003cda  2**0
                  CONTENTS, READONLY
  5 .note.gnu.avr.deviceinfo 0000003c  00000000  00000000  00003d38  2**2
                  CONTENTS, READONLY
  6 .debug_aranges 000002c8  00000000  00000000  00003d78  2**3
                  CONTENTS, READONLY, DEBUGGING
  7 .debug_info   0000323c  00000000  00000000  00004040  2**0
                  CONTENTS, READONLY, DEBUGGING
  8 .debug_abbrev 00000d8e  00000000  00000000  0000727c  2**0
                  CONTENTS, READONLY, DEBUGGING
  9 .debug_line   00002ca5  00000000  00000000  0000800a  2**0
                  CONTENTS, READONLY, DEBUGGING
 10 .debug_frame  000007f0  00000000  00000000  0000acb0  2**2
                  CONTENTS, READONLY, DEBUGGING
 11 .debug_str    00000e46  00000000  00000000  0000b4a0  2**0
                  CONTENTS, READONLY, DEBUGGING
 12 .debug_loc    0000233b  00000000  00000000  0000c2e6  2**0
                  CONTENTS, READONLY, DEBUGGING
 13 .debug_ranges 00000250  00000000  00000000  0000e621  2**0
                  CONTENTS, READONLY, DEBUGGING

Disassembly of section .text:

00000000 <__vectors>:
       0:	0c 94 6d 01 	jmp	0x2da	; 0x2da <__ctors_end>
       4:	0c 94 8a 01 	jmp	0x314	; 0x314 <__bad_interrupt>
       8:	0c 94 8a 01 	jmp	0x314	; 0x314 <__bad_interrupt>
       c:	0c 94 8a 01 	jmp	0x314	; 0x314 <__bad_interrupt>
      10:	0c 94 50 0e 	jmp	0x1ca0	; 0x1ca0 <__vector_4>
      14:	0c 94 8a 01 	jmp	0x314	; 0x314 <__bad_interrupt>
      18:	0c 94 00 0d 	jmp	0x1a00	; 0x1a00 <__vector_6>
      1c:	0c 94 f6 0c 	jmp	0x19ec	; 0x19ec <__vector_7>
      20:	0c 94 8a 01 	jmp	0x314	; 0x314 <__bad_interrupt>
      24:	0c 94 8a 01 	jmp	0x314	; 0x314 <__bad_interrupt>
      28:	0c 94 8a 01 	jmp	0x314	; 0x314 <__bad_interrupt>
      2c:	0c 94 0a 0d 	jmp	0x1a14	; 0x1a14 <__vector_11>
      30:	0c 94 8a 01 	jmp	0x314	; 0x314 <__bad_interrupt>
      34:	0c 94 8a 01 	jmp	0x314	; 0x314 <__bad_interrupt>
      38:	0c 94 8a 01 	jmp	0x314	; 0x314 <__bad_interrupt>
      3c:	0c 94 8a 01 	jmp	0x314	; 0x314 <__bad_interrupt>
      40:	0c 94 8a 01 	jmp	0x314	; 0x314 <__bad_interrupt>
      44:	0c 94 8a 01 	jmp	0x314	; 0x314 <__bad_interrupt>
      48:	0c 94 8a 01 	jmp	0x314	; 0x314 <__bad_interrupt>
      4c:	0c 94 8a 01 	jmp	0x314	; 0x314 <__bad_interrupt>
      50:	0c 94 8a 01 	jmp	0x314	; 0x314 <__bad_interrupt>

00000054 <__trampolines_end>:
      54:	20 20       	and	r2, r0
      56:	20 20       	and	r2, r0
      58:	20 20       	and	r2, r0
      5a:	20 20       	and	r2, r0
      5c:	20 20       	and	r2, r0
      5e:	20 20       	and	r2, r0
      60:	20 20       	and	r2, r0
      62:	20 20       	and	r2, r0
	...

00000065 <__c.2551>:
      65:	20 20 20 20 20 53 74 6f 72 65 64 20 20 20 20 20          Stored     
	...

00000076 <__c.2546>:
      76:	20 20 20 20 20 20 20 20 20 20 20 20 20 20 20 20                     
	...

00000087 <__c.2544>:
      87:	4d 61 6e 75 61 6c 6c 79 20 53 74 61 72 74 65 64     Manually Started
	...

00000098 <__c.2539>:
      98:	54 65 6d 70 2e 20 68 69 67 68 20 6c 69 6d 69 74     Temp. high limit
	...

000000a9 <__c.2563>:
      a9:	20 20 4c 6f 77 20 20 3e 20 20 48 69 67 68 74 20       Low  >  Hight 
	...

000000ba <__c.2561>:
      ba:	57 61 72 6e 69 6e 67 20 73 65 74 70 6f 69 6e 74     Warning setpoint
	...

000000cb <__c.2534>:
      cb:	54 65 6d 70 2e 20 6c 6f 77 20 6c 69 6d 69 74 20     Temp. low limit 
	...

000000dc <__c.2529>:
      dc:	42 61 74 2e 20 6c 6f 77 65 72 20 6c 69 6d 69 74     Bat. lower limit
	...

000000ed <__c.2524>:
      ed:	50 65 72 6b 69 6e 73 20 20 20 59 61 6e 6d 61 72     Perkins   Yanmar
	...

000000fe <__c.2522>:
      fe:	20 47 65 6e 65 72 61 74 6f 72 20 54 79 70 65 20      Generator Type 
	...

0000010f <__c.2517>:
     10f:	20 52 65 73 74 69 6e 67 20 54 69 6d 65 20 20 20      Resting Time   
	...

00000120 <__c.2512>:
     120:	20 57 6f 72 6b 69 6e 67 20 54 69 6d 65 20 20 20      Working Time   
	...

00000131 <__c.2507>:
     131:	20 52 65 73 74 69 6e 67 20 54 69 6d 65 20 20 20      Resting Time   
	...

00000142 <__c.2502>:
     142:	20 57 6f 72 6b 69 6e 67 20 54 69 6d 65 20 20 20      Working Time   
	...

00000153 <__c.2497>:
     153:	3c 2d 65 78 69 74 20 20 20 65 6e 74 65 72 2d 3e     <-exit   enter->
	...

00000164 <__c.2495>:
     164:	48 69 67 68 74 20 74 65 6d 70 65 72 61 74 2e 20     Hight temperat. 
	...

00000175 <__c.2490>:
     175:	3c 2d 65 78 69 74 20 20 20 65 6e 74 65 72 2d 3e     <-exit   enter->
	...

00000186 <__c.2488>:
     186:	4c 6f 77 20 20 74 65 6d 70 65 72 61 74 75 72 65     Low  temperature
	...

00000197 <__c.2483>:
     197:	3c 2d 65 78 69 74 20 20 20 65 6e 74 65 72 2d 3e     <-exit   enter->
	...

000001a8 <__c.2481>:
     1a8:	42 61 74 74 65 72 79 20 76 6f 6c 74 61 67 65 20     Battery voltage 
	...

000001b9 <__c.2476>:
     1b9:	3c 2d 65 78 69 74 20 20 20 65 6e 74 65 72 2d 3e     <-exit   enter->
	...

000001ca <__c.2474>:
     1ca:	20 20 20 47 65 6e 65 72 61 74 6f 72 20 20 20 20        Generator    
	...

000001db <__c.2469>:
     1db:	3c 2d 65 78 69 74 20 20 20 65 6e 74 65 72 2d 3e     <-exit   enter->
	...

000001ec <__c.2467>:
     1ec:	20 54 65 6d 70 65 72 2e 20 54 69 6d 65 72 20 20      Temper. Timer  
	...

000001fd <__c.2462>:
     1fd:	3c 2d 65 78 69 74 20 20 20 65 6e 74 65 72 2d 3e     <-exit   enter->
	...

0000020e <__c.2460>:
     20e:	20 56 6f 6c 74 61 67 65 20 54 69 6d 65 72 20 20      Voltage Timer  
	...

0000021f <__c.2455>:
     21f:	20 20 20 20 20 20 20 20 20 65 6e 74 65 72 2d 3e              enter->
	...

00000230 <__c.2453>:
     230:	20 20 4d 41 4e 55 41 4c 20 53 54 41 52 54 20 20       MANUAL START  
	...

00000241 <__c.2448>:
     241:	20 20 20 20 20 20 20 20 20 65 6e 74 65 72 2d 3e              enter->
	...

00000252 <__c.2446>:
     252:	20 20 20 20 43 4f 4e 54 52 4f 4c 20 20 20 20 20         CONTROL     
	...

00000263 <__c.2441>:
     263:	20 20 20 20 20 20 20 20 20 65 6e 74 65 72 2d 3e              enter->
	...

00000274 <__c.2439>:
     274:	20 20 20 20 53 45 54 49 4e 47 53 20 20 20 20 20         SETINGS     
	...

00000285 <__c.2661>:
     285:	20 20 20 56 65 72 2e 20 30 31 2e 31 38 20 20 20        Ver. 01.18   
	...

00000296 <__c.2659>:
     296:	20 20 67 74 73 2d 65 6c 2e 63 6f 6d 20 20 20 20       gts-el.com    
	...

000002a7 <__c.2657>:
     2a7:	47 54 53 20 45 4c 45 43 54 52 4f 4e 49 43 53 20     GTS ELECTRONICS 
	...

000002b8 <__c.2570>:
     2b8:	20 20 20 20 64 69 73 61 62 6c 65 64 21 20 20 20         disabled!   
	...

000002c9 <__c.2568>:
     2c9:	20 20 20 20 53 65 74 70 6f 69 6e 74 20 20 20 20         Setpoint    
	...

000002da <__ctors_end>:
     2da:	11 24       	eor	r1, r1
     2dc:	1f be       	out	0x3f, r1	; 63
     2de:	cf e5       	ldi	r28, 0x5F	; 95
     2e0:	d4 e0       	ldi	r29, 0x04	; 4
     2e2:	de bf       	out	0x3e, r29	; 62
     2e4:	cd bf       	out	0x3d, r28	; 61

000002e6 <__do_copy_data>:
     2e6:	11 e0       	ldi	r17, 0x01	; 1
     2e8:	a0 e6       	ldi	r26, 0x60	; 96
     2ea:	b0 e0       	ldi	r27, 0x00	; 0
     2ec:	ee e5       	ldi	r30, 0x5E	; 94
     2ee:	fb e3       	ldi	r31, 0x3B	; 59
     2f0:	02 c0       	rjmp	.+4      	; 0x2f6 <__do_copy_data+0x10>
     2f2:	05 90       	lpm	r0, Z+
     2f4:	0d 92       	st	X+, r0
     2f6:	ac 30       	cpi	r26, 0x0C	; 12
     2f8:	b1 07       	cpc	r27, r17
     2fa:	d9 f7       	brne	.-10     	; 0x2f2 <__do_copy_data+0xc>

000002fc <__do_clear_bss>:
     2fc:	21 e0       	ldi	r18, 0x01	; 1
     2fe:	ac e0       	ldi	r26, 0x0C	; 12
     300:	b1 e0       	ldi	r27, 0x01	; 1
     302:	01 c0       	rjmp	.+2      	; 0x306 <.do_clear_bss_start>

00000304 <.do_clear_bss_loop>:
     304:	1d 92       	st	X+, r1

00000306 <.do_clear_bss_start>:
     306:	ac 3c       	cpi	r26, 0xCC	; 204
     308:	b2 07       	cpc	r27, r18
     30a:	e1 f7       	brne	.-8      	; 0x304 <.do_clear_bss_loop>
     30c:	0e 94 b8 0f 	call	0x1f70	; 0x1f70 <main>
     310:	0c 94 ad 1d 	jmp	0x3b5a	; 0x3b5a <_exit>

00000314 <__bad_interrupt>:
     314:	0c 94 00 00 	jmp	0	; 0x0 <__vectors>

00000318 <test_runing_rest_timers>:
	eeprom_write_byte(&ee_enable_temperature_low,temperature.enable_low);	
	eeprom_write_byte(&ee_enable_temperature_hight,temperature.enable_hight);	
}
//!!static inline ------------------------------------------------------------------
static uint8_t test_runing_rest_timers(void){
	if(time_rest_bat.status==RUNING){
     318:	80 91 5a 01 	lds	r24, 0x015A	; 0x80015a <time_rest_bat+0x1a>
     31c:	81 30       	cpi	r24, 0x01	; 1
     31e:	31 f0       	breq	.+12     	; 0x32c <test_runing_rest_timers+0x14>
	return 1;
     320:	81 e0       	ldi	r24, 0x01	; 1
     322:	90 91 b0 01 	lds	r25, 0x01B0	; 0x8001b0 <time_rest_temperat+0x1a>
     326:	91 30       	cpi	r25, 0x01	; 1
     328:	09 f0       	breq	.+2      	; 0x32c <test_runing_rest_timers+0x14>
     32a:	80 e0       	ldi	r24, 0x00	; 0
	}else if(time_rest_temperat.status==1){
	return 1;
	}else{
	return 0;
	}	
}
     32c:	08 95       	ret

0000032e <start_timer_run_bat>:
//------------------------------------------------
static void start_timer_run_bat(void){
     32e:	0f 93       	push	r16
     330:	1f 93       	push	r17
	time_work_bat.setp_time_bin=36000*(time_work_bat.string_setp_time[0]&0x0F)+3600*(time_work_bat.string_setp_time[1]&0x0F)+600*(time_work_bat.string_setp_time[3]&0x0F)+60*(time_work_bat.string_setp_time[4]&0x0F)+10*(time_work_bat.string_setp_time[6]&0x0F)+(time_work_bat.string_setp_time[7]&0x0F);
     332:	ea e7       	ldi	r30, 0x7A	; 122
     334:	f1 e0       	ldi	r31, 0x01	; 1
     336:	20 81       	ld	r18, Z
     338:	2f 70       	andi	r18, 0x0F	; 15
     33a:	30 e0       	ldi	r19, 0x00	; 0
     33c:	a0 ea       	ldi	r26, 0xA0	; 160
     33e:	bc e8       	ldi	r27, 0x8C	; 140
     340:	0e 94 49 1a 	call	0x3492	; 0x3492 <__umulhisi3>
     344:	21 81       	ldd	r18, Z+1	; 0x01
     346:	2f 70       	andi	r18, 0x0F	; 15
     348:	a0 e1       	ldi	r26, 0x10	; 16
     34a:	be e0       	ldi	r27, 0x0E	; 14
     34c:	2a 9f       	mul	r18, r26
     34e:	a0 01       	movw	r20, r0
     350:	2b 9f       	mul	r18, r27
     352:	50 0d       	add	r21, r0
     354:	11 24       	eor	r1, r1
     356:	8a 01       	movw	r16, r20
     358:	55 0f       	add	r21, r21
     35a:	22 0b       	sbc	r18, r18
     35c:	33 0b       	sbc	r19, r19
     35e:	dc 01       	movw	r26, r24
     360:	cb 01       	movw	r24, r22
     362:	80 0f       	add	r24, r16
     364:	91 1f       	adc	r25, r17
     366:	a2 1f       	adc	r26, r18
     368:	b3 1f       	adc	r27, r19
     36a:	23 81       	ldd	r18, Z+3	; 0x03
     36c:	2f 70       	andi	r18, 0x0F	; 15
     36e:	68 e5       	ldi	r22, 0x58	; 88
     370:	72 e0       	ldi	r23, 0x02	; 2
     372:	26 9f       	mul	r18, r22
     374:	a0 01       	movw	r20, r0
     376:	27 9f       	mul	r18, r23
     378:	50 0d       	add	r21, r0
     37a:	11 24       	eor	r1, r1
     37c:	05 2e       	mov	r0, r21
     37e:	00 0c       	add	r0, r0
     380:	66 0b       	sbc	r22, r22
     382:	77 0b       	sbc	r23, r23
     384:	84 0f       	add	r24, r20
     386:	95 1f       	adc	r25, r21
     388:	a6 1f       	adc	r26, r22
     38a:	b7 1f       	adc	r27, r23
     38c:	44 81       	ldd	r20, Z+4	; 0x04
     38e:	4f 70       	andi	r20, 0x0F	; 15
     390:	2c e3       	ldi	r18, 0x3C	; 60
     392:	42 9f       	mul	r20, r18
     394:	a0 01       	movw	r20, r0
     396:	11 24       	eor	r1, r1
     398:	05 2e       	mov	r0, r21
     39a:	00 0c       	add	r0, r0
     39c:	66 0b       	sbc	r22, r22
     39e:	77 0b       	sbc	r23, r23
     3a0:	84 0f       	add	r24, r20
     3a2:	95 1f       	adc	r25, r21
     3a4:	a6 1f       	adc	r26, r22
     3a6:	b7 1f       	adc	r27, r23
     3a8:	26 81       	ldd	r18, Z+6	; 0x06
     3aa:	2f 70       	andi	r18, 0x0F	; 15
     3ac:	30 e0       	ldi	r19, 0x00	; 0
     3ae:	a9 01       	movw	r20, r18
     3b0:	44 0f       	add	r20, r20
     3b2:	55 1f       	adc	r21, r21
     3b4:	22 0f       	add	r18, r18
     3b6:	33 1f       	adc	r19, r19
     3b8:	22 0f       	add	r18, r18
     3ba:	33 1f       	adc	r19, r19
     3bc:	22 0f       	add	r18, r18
     3be:	33 1f       	adc	r19, r19
     3c0:	42 0f       	add	r20, r18
     3c2:	53 1f       	adc	r21, r19
     3c4:	05 2e       	mov	r0, r21
     3c6:	00 0c       	add	r0, r0
     3c8:	66 0b       	sbc	r22, r22
     3ca:	77 0b       	sbc	r23, r23
     3cc:	84 0f       	add	r24, r20
     3ce:	95 1f       	adc	r25, r21
     3d0:	a6 1f       	adc	r26, r22
     3d2:	b7 1f       	adc	r27, r23
     3d4:	27 81       	ldd	r18, Z+7	; 0x07
     3d6:	2f 70       	andi	r18, 0x0F	; 15
     3d8:	82 0f       	add	r24, r18
     3da:	91 1d       	adc	r25, r1
     3dc:	a1 1d       	adc	r26, r1
     3de:	b1 1d       	adc	r27, r1
     3e0:	81 87       	std	Z+9, r24	; 0x09
     3e2:	92 87       	std	Z+10, r25	; 0x0a
     3e4:	a3 87       	std	Z+11, r26	; 0x0b
     3e6:	b4 87       	std	Z+12, r27	; 0x0c
	time_work_bat.string_time[0] = 0x30;
     3e8:	80 e3       	ldi	r24, 0x30	; 48
     3ea:	85 87       	std	Z+13, r24	; 0x0d
	time_work_bat.string_time[1] = 0x30;
     3ec:	86 87       	std	Z+14, r24	; 0x0e
	time_work_bat.string_time[2] = 0x3a;		// :
     3ee:	9a e3       	ldi	r25, 0x3A	; 58
     3f0:	97 87       	std	Z+15, r25	; 0x0f
	time_work_bat.string_time[3] = 0x30;
     3f2:	80 8b       	std	Z+16, r24	; 0x10
	time_work_bat.string_time[4] = 0x30;
     3f4:	81 8b       	std	Z+17, r24	; 0x11
	time_work_bat.string_time[5] = 0x3a;		// :
     3f6:	92 8b       	std	Z+18, r25	; 0x12
	time_work_bat.string_time[6] = 0x30;
     3f8:	83 8b       	std	Z+19, r24	; 0x13
	time_work_bat.string_time[7] = 0x30;
     3fa:	84 8b       	std	Z+20, r24	; 0x14
	time_work_bat.string_time[8] = 0x00;
     3fc:	15 8a       	std	Z+21, r1	; 0x15
	time_work_bat.time_bin=0;
     3fe:	16 8a       	std	Z+22, r1	; 0x16
     400:	17 8a       	std	Z+23, r1	; 0x17
     402:	10 8e       	std	Z+24, r1	; 0x18
     404:	11 8e       	std	Z+25, r1	; 0x19
	time_work_bat.status=RUNING;	
     406:	81 e0       	ldi	r24, 0x01	; 1
     408:	82 8f       	std	Z+26, r24	; 0x1a
}
     40a:	1f 91       	pop	r17
     40c:	0f 91       	pop	r16
     40e:	08 95       	ret

00000410 <start_timer_run_temperat>:
//------------------------------------------------
//!!static inline 
static void start_timer_run_temperat(void){
     410:	0f 93       	push	r16
     412:	1f 93       	push	r17
	time_work_temperat.setp_time_bin=36000*(time_work_temperat.string_setp_time[0]&0x0F)+3600*(time_work_temperat.string_setp_time[1]&0x0F)+600*(time_work_temperat.string_setp_time[3]&0x0F)+60*(time_work_temperat.string_setp_time[4]&0x0F)+10*(time_work_temperat.string_setp_time[6]&0x0F)+(time_work_temperat.string_setp_time[7]&0x0F);
     414:	e0 e2       	ldi	r30, 0x20	; 32
     416:	f1 e0       	ldi	r31, 0x01	; 1
     418:	20 81       	ld	r18, Z
     41a:	2f 70       	andi	r18, 0x0F	; 15
     41c:	30 e0       	ldi	r19, 0x00	; 0
     41e:	a0 ea       	ldi	r26, 0xA0	; 160
     420:	bc e8       	ldi	r27, 0x8C	; 140
     422:	0e 94 49 1a 	call	0x3492	; 0x3492 <__umulhisi3>
     426:	21 81       	ldd	r18, Z+1	; 0x01
     428:	2f 70       	andi	r18, 0x0F	; 15
     42a:	a0 e1       	ldi	r26, 0x10	; 16
     42c:	be e0       	ldi	r27, 0x0E	; 14
     42e:	2a 9f       	mul	r18, r26
     430:	a0 01       	movw	r20, r0
     432:	2b 9f       	mul	r18, r27
     434:	50 0d       	add	r21, r0
     436:	11 24       	eor	r1, r1
     438:	8a 01       	movw	r16, r20
     43a:	55 0f       	add	r21, r21
     43c:	22 0b       	sbc	r18, r18
     43e:	33 0b       	sbc	r19, r19
     440:	dc 01       	movw	r26, r24
     442:	cb 01       	movw	r24, r22
     444:	80 0f       	add	r24, r16
     446:	91 1f       	adc	r25, r17
     448:	a2 1f       	adc	r26, r18
     44a:	b3 1f       	adc	r27, r19
     44c:	23 81       	ldd	r18, Z+3	; 0x03
     44e:	2f 70       	andi	r18, 0x0F	; 15
     450:	68 e5       	ldi	r22, 0x58	; 88
     452:	72 e0       	ldi	r23, 0x02	; 2
     454:	26 9f       	mul	r18, r22
     456:	a0 01       	movw	r20, r0
     458:	27 9f       	mul	r18, r23
     45a:	50 0d       	add	r21, r0
     45c:	11 24       	eor	r1, r1
     45e:	05 2e       	mov	r0, r21
     460:	00 0c       	add	r0, r0
     462:	66 0b       	sbc	r22, r22
     464:	77 0b       	sbc	r23, r23
     466:	84 0f       	add	r24, r20
     468:	95 1f       	adc	r25, r21
     46a:	a6 1f       	adc	r26, r22
     46c:	b7 1f       	adc	r27, r23
     46e:	44 81       	ldd	r20, Z+4	; 0x04
     470:	4f 70       	andi	r20, 0x0F	; 15
     472:	2c e3       	ldi	r18, 0x3C	; 60
     474:	42 9f       	mul	r20, r18
     476:	a0 01       	movw	r20, r0
     478:	11 24       	eor	r1, r1
     47a:	05 2e       	mov	r0, r21
     47c:	00 0c       	add	r0, r0
     47e:	66 0b       	sbc	r22, r22
     480:	77 0b       	sbc	r23, r23
     482:	84 0f       	add	r24, r20
     484:	95 1f       	adc	r25, r21
     486:	a6 1f       	adc	r26, r22
     488:	b7 1f       	adc	r27, r23
     48a:	26 81       	ldd	r18, Z+6	; 0x06
     48c:	2f 70       	andi	r18, 0x0F	; 15
     48e:	30 e0       	ldi	r19, 0x00	; 0
     490:	a9 01       	movw	r20, r18
     492:	44 0f       	add	r20, r20
     494:	55 1f       	adc	r21, r21
     496:	22 0f       	add	r18, r18
     498:	33 1f       	adc	r19, r19
     49a:	22 0f       	add	r18, r18
     49c:	33 1f       	adc	r19, r19
     49e:	22 0f       	add	r18, r18
     4a0:	33 1f       	adc	r19, r19
     4a2:	42 0f       	add	r20, r18
     4a4:	53 1f       	adc	r21, r19
     4a6:	05 2e       	mov	r0, r21
     4a8:	00 0c       	add	r0, r0
     4aa:	66 0b       	sbc	r22, r22
     4ac:	77 0b       	sbc	r23, r23
     4ae:	84 0f       	add	r24, r20
     4b0:	95 1f       	adc	r25, r21
     4b2:	a6 1f       	adc	r26, r22
     4b4:	b7 1f       	adc	r27, r23
     4b6:	27 81       	ldd	r18, Z+7	; 0x07
     4b8:	2f 70       	andi	r18, 0x0F	; 15
     4ba:	82 0f       	add	r24, r18
     4bc:	91 1d       	adc	r25, r1
     4be:	a1 1d       	adc	r26, r1
     4c0:	b1 1d       	adc	r27, r1
     4c2:	81 87       	std	Z+9, r24	; 0x09
     4c4:	92 87       	std	Z+10, r25	; 0x0a
     4c6:	a3 87       	std	Z+11, r26	; 0x0b
     4c8:	b4 87       	std	Z+12, r27	; 0x0c
	time_work_temperat.string_time[0] = 0x30;
     4ca:	80 e3       	ldi	r24, 0x30	; 48
     4cc:	85 87       	std	Z+13, r24	; 0x0d
	time_work_temperat.string_time[1] = 0x30;
     4ce:	86 87       	std	Z+14, r24	; 0x0e
	time_work_temperat.string_time[2] = 0x3a;		// :
     4d0:	9a e3       	ldi	r25, 0x3A	; 58
     4d2:	97 87       	std	Z+15, r25	; 0x0f
	time_work_temperat.string_time[3] = 0x30;
     4d4:	80 8b       	std	Z+16, r24	; 0x10
	time_work_temperat.string_time[4] = 0x30;
     4d6:	81 8b       	std	Z+17, r24	; 0x11
	time_work_temperat.string_time[5] = 0x3a;		// :
     4d8:	92 8b       	std	Z+18, r25	; 0x12
	time_work_temperat.string_time[6] = 0x30;
     4da:	83 8b       	std	Z+19, r24	; 0x13
	time_work_temperat.string_time[7] = 0x30;
     4dc:	84 8b       	std	Z+20, r24	; 0x14
	time_work_temperat.string_time[8] = 0x00;	
     4de:	15 8a       	std	Z+21, r1	; 0x15
	time_work_temperat.time_bin=0;
     4e0:	16 8a       	std	Z+22, r1	; 0x16
     4e2:	17 8a       	std	Z+23, r1	; 0x17
     4e4:	10 8e       	std	Z+24, r1	; 0x18
     4e6:	11 8e       	std	Z+25, r1	; 0x19
	time_work_temperat.status=RUNING;
     4e8:	81 e0       	ldi	r24, 0x01	; 1
     4ea:	82 8f       	std	Z+26, r24	; 0x1a
}
     4ec:	1f 91       	pop	r17
     4ee:	0f 91       	pop	r16
     4f0:	08 95       	ret

000004f2 <start_timer_rest_bat>:
//------------------------------------------------
//!!static inline 
static void start_timer_rest_bat(void){
     4f2:	0f 93       	push	r16
     4f4:	1f 93       	push	r17
	time_rest_bat.setp_time_bin=36000*(time_rest_bat.string_setp_time[0]&0x0F)+3600*(time_rest_bat.string_setp_time[1]&0x0F)+600*(time_rest_bat.string_setp_time[3]&0x0F)+60*(time_rest_bat.string_setp_time[4]&0x0F)+10*(time_rest_bat.string_setp_time[6]&0x0F)+(time_rest_bat.string_setp_time[7]&0x0F);
     4f6:	e0 e4       	ldi	r30, 0x40	; 64
     4f8:	f1 e0       	ldi	r31, 0x01	; 1
     4fa:	20 81       	ld	r18, Z
     4fc:	2f 70       	andi	r18, 0x0F	; 15
     4fe:	30 e0       	ldi	r19, 0x00	; 0
     500:	a0 ea       	ldi	r26, 0xA0	; 160
     502:	bc e8       	ldi	r27, 0x8C	; 140
     504:	0e 94 49 1a 	call	0x3492	; 0x3492 <__umulhisi3>
     508:	21 81       	ldd	r18, Z+1	; 0x01
     50a:	2f 70       	andi	r18, 0x0F	; 15
     50c:	a0 e1       	ldi	r26, 0x10	; 16
     50e:	be e0       	ldi	r27, 0x0E	; 14
     510:	2a 9f       	mul	r18, r26
     512:	a0 01       	movw	r20, r0
     514:	2b 9f       	mul	r18, r27
     516:	50 0d       	add	r21, r0
     518:	11 24       	eor	r1, r1
     51a:	8a 01       	movw	r16, r20
     51c:	55 0f       	add	r21, r21
     51e:	22 0b       	sbc	r18, r18
     520:	33 0b       	sbc	r19, r19
     522:	dc 01       	movw	r26, r24
     524:	cb 01       	movw	r24, r22
     526:	80 0f       	add	r24, r16
     528:	91 1f       	adc	r25, r17
     52a:	a2 1f       	adc	r26, r18
     52c:	b3 1f       	adc	r27, r19
     52e:	23 81       	ldd	r18, Z+3	; 0x03
     530:	2f 70       	andi	r18, 0x0F	; 15
     532:	68 e5       	ldi	r22, 0x58	; 88
     534:	72 e0       	ldi	r23, 0x02	; 2
     536:	26 9f       	mul	r18, r22
     538:	a0 01       	movw	r20, r0
     53a:	27 9f       	mul	r18, r23
     53c:	50 0d       	add	r21, r0
     53e:	11 24       	eor	r1, r1
     540:	05 2e       	mov	r0, r21
     542:	00 0c       	add	r0, r0
     544:	66 0b       	sbc	r22, r22
     546:	77 0b       	sbc	r23, r23
     548:	84 0f       	add	r24, r20
     54a:	95 1f       	adc	r25, r21
     54c:	a6 1f       	adc	r26, r22
     54e:	b7 1f       	adc	r27, r23
     550:	44 81       	ldd	r20, Z+4	; 0x04
     552:	4f 70       	andi	r20, 0x0F	; 15
     554:	2c e3       	ldi	r18, 0x3C	; 60
     556:	42 9f       	mul	r20, r18
     558:	a0 01       	movw	r20, r0
     55a:	11 24       	eor	r1, r1
     55c:	05 2e       	mov	r0, r21
     55e:	00 0c       	add	r0, r0
     560:	66 0b       	sbc	r22, r22
     562:	77 0b       	sbc	r23, r23
     564:	84 0f       	add	r24, r20
     566:	95 1f       	adc	r25, r21
     568:	a6 1f       	adc	r26, r22
     56a:	b7 1f       	adc	r27, r23
     56c:	26 81       	ldd	r18, Z+6	; 0x06
     56e:	2f 70       	andi	r18, 0x0F	; 15
     570:	30 e0       	ldi	r19, 0x00	; 0
     572:	a9 01       	movw	r20, r18
     574:	44 0f       	add	r20, r20
     576:	55 1f       	adc	r21, r21
     578:	22 0f       	add	r18, r18
     57a:	33 1f       	adc	r19, r19
     57c:	22 0f       	add	r18, r18
     57e:	33 1f       	adc	r19, r19
     580:	22 0f       	add	r18, r18
     582:	33 1f       	adc	r19, r19
     584:	42 0f       	add	r20, r18
     586:	53 1f       	adc	r21, r19
     588:	05 2e       	mov	r0, r21
     58a:	00 0c       	add	r0, r0
     58c:	66 0b       	sbc	r22, r22
     58e:	77 0b       	sbc	r23, r23
     590:	84 0f       	add	r24, r20
     592:	95 1f       	adc	r25, r21
     594:	a6 1f       	adc	r26, r22
     596:	b7 1f       	adc	r27, r23
     598:	27 81       	ldd	r18, Z+7	; 0x07
     59a:	2f 70       	andi	r18, 0x0F	; 15
     59c:	82 0f       	add	r24, r18
     59e:	91 1d       	adc	r25, r1
     5a0:	a1 1d       	adc	r26, r1
     5a2:	b1 1d       	adc	r27, r1
     5a4:	81 87       	std	Z+9, r24	; 0x09
     5a6:	92 87       	std	Z+10, r25	; 0x0a
     5a8:	a3 87       	std	Z+11, r26	; 0x0b
     5aa:	b4 87       	std	Z+12, r27	; 0x0c
	time_rest_bat.string_time[0] = 0x30;
     5ac:	80 e3       	ldi	r24, 0x30	; 48
     5ae:	85 87       	std	Z+13, r24	; 0x0d
	time_rest_bat.string_time[1] = 0x30;
     5b0:	86 87       	std	Z+14, r24	; 0x0e
	time_rest_bat.string_time[2] = 0x3a;		// :
     5b2:	9a e3       	ldi	r25, 0x3A	; 58
     5b4:	97 87       	std	Z+15, r25	; 0x0f
	time_rest_bat.string_time[3] = 0x30;
     5b6:	80 8b       	std	Z+16, r24	; 0x10
	time_rest_bat.string_time[4] = 0x30;
     5b8:	81 8b       	std	Z+17, r24	; 0x11
	time_rest_bat.string_time[5] = 0x3a;		// :
     5ba:	92 8b       	std	Z+18, r25	; 0x12
	time_rest_bat.string_time[6] = 0x30;
     5bc:	83 8b       	std	Z+19, r24	; 0x13
	time_rest_bat.string_time[7] = 0x30;
     5be:	84 8b       	std	Z+20, r24	; 0x14
	time_rest_bat.string_time[8] = 0x00;
     5c0:	15 8a       	std	Z+21, r1	; 0x15
	time_rest_bat.time_bin=0;
     5c2:	16 8a       	std	Z+22, r1	; 0x16
     5c4:	17 8a       	std	Z+23, r1	; 0x17
     5c6:	10 8e       	std	Z+24, r1	; 0x18
     5c8:	11 8e       	std	Z+25, r1	; 0x19
	time_rest_bat.status=RUNING;
     5ca:	81 e0       	ldi	r24, 0x01	; 1
     5cc:	82 8f       	std	Z+26, r24	; 0x1a
}
     5ce:	1f 91       	pop	r17
     5d0:	0f 91       	pop	r16
     5d2:	08 95       	ret

000005d4 <start_timer_rest_temperat>:
//------------------------------------------------
//!!static inline 
static void start_timer_rest_temperat(void){
     5d4:	0f 93       	push	r16
     5d6:	1f 93       	push	r17
	time_rest_temperat.setp_time_bin=36000*(time_rest_temperat.string_setp_time[0]&0x0F)+3600*(time_rest_temperat.string_setp_time[1]&0x0F)+600*(time_rest_temperat.string_setp_time[3]&0x0F)+60*(time_rest_temperat.string_setp_time[4]&0x0F)+10*(time_rest_temperat.string_setp_time[6]&0x0F)+(time_rest_temperat.string_setp_time[7]&0x0F);
     5d8:	e6 e9       	ldi	r30, 0x96	; 150
     5da:	f1 e0       	ldi	r31, 0x01	; 1
     5dc:	20 81       	ld	r18, Z
     5de:	2f 70       	andi	r18, 0x0F	; 15
     5e0:	30 e0       	ldi	r19, 0x00	; 0
     5e2:	a0 ea       	ldi	r26, 0xA0	; 160
     5e4:	bc e8       	ldi	r27, 0x8C	; 140
     5e6:	0e 94 49 1a 	call	0x3492	; 0x3492 <__umulhisi3>
     5ea:	21 81       	ldd	r18, Z+1	; 0x01
     5ec:	2f 70       	andi	r18, 0x0F	; 15
     5ee:	a0 e1       	ldi	r26, 0x10	; 16
     5f0:	be e0       	ldi	r27, 0x0E	; 14
     5f2:	2a 9f       	mul	r18, r26
     5f4:	a0 01       	movw	r20, r0
     5f6:	2b 9f       	mul	r18, r27
     5f8:	50 0d       	add	r21, r0
     5fa:	11 24       	eor	r1, r1
     5fc:	8a 01       	movw	r16, r20
     5fe:	55 0f       	add	r21, r21
     600:	22 0b       	sbc	r18, r18
     602:	33 0b       	sbc	r19, r19
     604:	dc 01       	movw	r26, r24
     606:	cb 01       	movw	r24, r22
     608:	80 0f       	add	r24, r16
     60a:	91 1f       	adc	r25, r17
     60c:	a2 1f       	adc	r26, r18
     60e:	b3 1f       	adc	r27, r19
     610:	23 81       	ldd	r18, Z+3	; 0x03
     612:	2f 70       	andi	r18, 0x0F	; 15
     614:	68 e5       	ldi	r22, 0x58	; 88
     616:	72 e0       	ldi	r23, 0x02	; 2
     618:	26 9f       	mul	r18, r22
     61a:	a0 01       	movw	r20, r0
     61c:	27 9f       	mul	r18, r23
     61e:	50 0d       	add	r21, r0
     620:	11 24       	eor	r1, r1
     622:	05 2e       	mov	r0, r21
     624:	00 0c       	add	r0, r0
     626:	66 0b       	sbc	r22, r22
     628:	77 0b       	sbc	r23, r23
     62a:	84 0f       	add	r24, r20
     62c:	95 1f       	adc	r25, r21
     62e:	a6 1f       	adc	r26, r22
     630:	b7 1f       	adc	r27, r23
     632:	44 81       	ldd	r20, Z+4	; 0x04
     634:	4f 70       	andi	r20, 0x0F	; 15
     636:	2c e3       	ldi	r18, 0x3C	; 60
     638:	42 9f       	mul	r20, r18
     63a:	a0 01       	movw	r20, r0
     63c:	11 24       	eor	r1, r1
     63e:	05 2e       	mov	r0, r21
     640:	00 0c       	add	r0, r0
     642:	66 0b       	sbc	r22, r22
     644:	77 0b       	sbc	r23, r23
     646:	84 0f       	add	r24, r20
     648:	95 1f       	adc	r25, r21
     64a:	a6 1f       	adc	r26, r22
     64c:	b7 1f       	adc	r27, r23
     64e:	26 81       	ldd	r18, Z+6	; 0x06
     650:	2f 70       	andi	r18, 0x0F	; 15
     652:	30 e0       	ldi	r19, 0x00	; 0
     654:	a9 01       	movw	r20, r18
     656:	44 0f       	add	r20, r20
     658:	55 1f       	adc	r21, r21
     65a:	22 0f       	add	r18, r18
     65c:	33 1f       	adc	r19, r19
     65e:	22 0f       	add	r18, r18
     660:	33 1f       	adc	r19, r19
     662:	22 0f       	add	r18, r18
     664:	33 1f       	adc	r19, r19
     666:	42 0f       	add	r20, r18
     668:	53 1f       	adc	r21, r19
     66a:	05 2e       	mov	r0, r21
     66c:	00 0c       	add	r0, r0
     66e:	66 0b       	sbc	r22, r22
     670:	77 0b       	sbc	r23, r23
     672:	84 0f       	add	r24, r20
     674:	95 1f       	adc	r25, r21
     676:	a6 1f       	adc	r26, r22
     678:	b7 1f       	adc	r27, r23
     67a:	27 81       	ldd	r18, Z+7	; 0x07
     67c:	2f 70       	andi	r18, 0x0F	; 15
     67e:	82 0f       	add	r24, r18
     680:	91 1d       	adc	r25, r1
     682:	a1 1d       	adc	r26, r1
     684:	b1 1d       	adc	r27, r1
     686:	81 87       	std	Z+9, r24	; 0x09
     688:	92 87       	std	Z+10, r25	; 0x0a
     68a:	a3 87       	std	Z+11, r26	; 0x0b
     68c:	b4 87       	std	Z+12, r27	; 0x0c
	time_rest_temperat.string_time[0] = 0x30;
     68e:	80 e3       	ldi	r24, 0x30	; 48
     690:	85 87       	std	Z+13, r24	; 0x0d
	time_rest_temperat.string_time[1] = 0x30;
     692:	86 87       	std	Z+14, r24	; 0x0e
	time_rest_temperat.string_time[2] = 0x3a;		// :
     694:	9a e3       	ldi	r25, 0x3A	; 58
     696:	97 87       	std	Z+15, r25	; 0x0f
	time_rest_temperat.string_time[3] = 0x30;
     698:	80 8b       	std	Z+16, r24	; 0x10
	time_rest_temperat.string_time[4] = 0x30;
     69a:	81 8b       	std	Z+17, r24	; 0x11
	time_rest_temperat.string_time[5] = 0x3a;		// :
     69c:	92 8b       	std	Z+18, r25	; 0x12
	time_rest_temperat.string_time[6] = 0x30;
     69e:	83 8b       	std	Z+19, r24	; 0x13
	time_rest_temperat.string_time[7] = 0x30;
     6a0:	84 8b       	std	Z+20, r24	; 0x14
	time_rest_temperat.string_time[8] = 0x00;
     6a2:	15 8a       	std	Z+21, r1	; 0x15
	time_rest_temperat.time_bin=0;
     6a4:	16 8a       	std	Z+22, r1	; 0x16
     6a6:	17 8a       	std	Z+23, r1	; 0x17
     6a8:	10 8e       	std	Z+24, r1	; 0x18
     6aa:	11 8e       	std	Z+25, r1	; 0x19
	time_rest_temperat.status=RUNING;
     6ac:	81 e0       	ldi	r24, 0x01	; 1
     6ae:	82 8f       	std	Z+26, r24	; 0x1a
}
     6b0:	1f 91       	pop	r17
     6b2:	0f 91       	pop	r16
     6b4:	08 95       	ret

000006b6 <start_timer_wait>:
//------------------------------------------------
static void start_timer_wait(void){
	wate_time[0] = 0x30;
     6b6:	e8 eb       	ldi	r30, 0xB8	; 184
     6b8:	f1 e0       	ldi	r31, 0x01	; 1
     6ba:	80 e3       	ldi	r24, 0x30	; 48
     6bc:	80 83       	st	Z, r24
	wate_time[1] = 0x30;
     6be:	81 83       	std	Z+1, r24	; 0x01
	wate_time[2] = 0x3a;		// :
     6c0:	9a e3       	ldi	r25, 0x3A	; 58
     6c2:	92 83       	std	Z+2, r25	; 0x02
	wate_time[3] = 0x30;
     6c4:	83 83       	std	Z+3, r24	; 0x03
	wate_time[4] = 0x30;
     6c6:	84 83       	std	Z+4, r24	; 0x04
	wate_time[5] = 0x3a;		// :
     6c8:	95 83       	std	Z+5, r25	; 0x05
	wate_time[6] = 0x30;
     6ca:	86 83       	std	Z+6, r24	; 0x06
	wate_time[7] = 0x30;
     6cc:	87 83       	std	Z+7, r24	; 0x07
	wate_time[8] = 0x00;
     6ce:	10 86       	std	Z+8, r1	; 0x08
     6d0:	08 95       	ret

000006d2 <clr_key>:
	#else
		//round up by default
		__ticks_dc = (uint32_t)(ceil(fabs(__tmp)));
	#endif

	__builtin_avr_delay_cycles(__ticks_dc);
     6d2:	2f ef       	ldi	r18, 0xFF	; 255
     6d4:	89 e6       	ldi	r24, 0x69	; 105
     6d6:	98 e1       	ldi	r25, 0x18	; 24
     6d8:	21 50       	subi	r18, 0x01	; 1
     6da:	80 40       	sbci	r24, 0x00	; 0
     6dc:	90 40       	sbci	r25, 0x00	; 0
     6de:	e1 f7       	brne	.-8      	; 0x6d8 <clr_key+0x6>
     6e0:	00 c0       	rjmp	.+0      	; 0x6e2 <clr_key+0x10>
     6e2:	00 00       	nop
}*/
//------------------------------------------------------------------------------------------------------------------
static void clr_key(void)
{
_delay_ms(500);
wdt_reset ();
     6e4:	a8 95       	wdr
key=0x1f;
     6e6:	8f e1       	ldi	r24, 0x1F	; 31
     6e8:	80 93 18 01 	sts	0x0118, r24	; 0x800118 <key>
     6ec:	08 95       	ret

000006ee <build_menu_generator_type>:
	lcd_1_strin();	
}
//------------------------------------------------------------------------------------------------------------------
static void build_menu_generator_type(void)
{
	lcd_1_strin();
     6ee:	0e 94 19 1a 	call	0x3432	; 0x3432 <lcd_1_strin>
	printf_P(PSTR(" Generator Type "));
     6f2:	8e ef       	ldi	r24, 0xFE	; 254
     6f4:	90 e0       	ldi	r25, 0x00	; 0
     6f6:	9f 93       	push	r25
     6f8:	8f 93       	push	r24
     6fa:	0e 94 81 1a 	call	0x3502	; 0x3502 <printf_P>
	lcd_2_strin();
     6fe:	0e 94 20 1a 	call	0x3440	; 0x3440 <lcd_2_strin>
	printf_P(PSTR("Perkins   Yanmar"));
     702:	8d ee       	ldi	r24, 0xED	; 237
     704:	90 e0       	ldi	r25, 0x00	; 0
     706:	9f 93       	push	r25
     708:	8f 93       	push	r24
     70a:	0e 94 81 1a 	call	0x3502	; 0x3502 <printf_P>
	lcd_1_strin();	
     70e:	0e 94 19 1a 	call	0x3432	; 0x3432 <lcd_1_strin>
}
     712:	0f 90       	pop	r0
     714:	0f 90       	pop	r0
     716:	0f 90       	pop	r0
     718:	0f 90       	pop	r0
     71a:	08 95       	ret

0000071c <build_windou_stored>:
	printf_P(PSTR("                "));
	lcd_1_strin();	
}
//------------------------------------------------------------------------------------------------------------------
static void build_windou_stored(void){
	lcd_1_strin();
     71c:	0e 94 19 1a 	call	0x3432	; 0x3432 <lcd_1_strin>
	printf_P(PSTR("     Stored     "));
     720:	85 e6       	ldi	r24, 0x65	; 101
     722:	90 e0       	ldi	r25, 0x00	; 0
     724:	9f 93       	push	r25
     726:	8f 93       	push	r24
     728:	0e 94 81 1a 	call	0x3502	; 0x3502 <printf_P>
	lcd_2_strin();
     72c:	0e 94 20 1a 	call	0x3440	; 0x3440 <lcd_2_strin>
	printf_P(PSTR("                "));
     730:	84 e5       	ldi	r24, 0x54	; 84
     732:	90 e0       	ldi	r25, 0x00	; 0
     734:	9f 93       	push	r25
     736:	8f 93       	push	r24
     738:	0e 94 81 1a 	call	0x3502	; 0x3502 <printf_P>
	lcd_1_strin();
     73c:	0e 94 19 1a 	call	0x3432	; 0x3432 <lcd_1_strin>
}
     740:	0f 90       	pop	r0
     742:	0f 90       	pop	r0
     744:	0f 90       	pop	r0
     746:	0f 90       	pop	r0
     748:	08 95       	ret

0000074a <build_menu_voltage_working_time>:
//------------------------------------------------------------------------------------------------------------------
//------------------------------------------------------------------------------------------------------------------

static void build_menu_voltage_working_time(void)
{
	lcd_1_strin();
     74a:	0e 94 19 1a 	call	0x3432	; 0x3432 <lcd_1_strin>
	printf_P(PSTR(" Working Time   "));
     74e:	82 e4       	ldi	r24, 0x42	; 66
     750:	91 e0       	ldi	r25, 0x01	; 1
     752:	9f 93       	push	r25
     754:	8f 93       	push	r24
     756:	0e 94 81 1a 	call	0x3502	; 0x3502 <printf_P>
	lcd_2_strin();
     75a:	0e 94 20 1a 	call	0x3440	; 0x3440 <lcd_2_strin>
	printf("%.5s     Save   ",time_work_bat.string_setp_time);
     75e:	8a e7       	ldi	r24, 0x7A	; 122
     760:	91 e0       	ldi	r25, 0x01	; 1
     762:	9f 93       	push	r25
     764:	8f 93       	push	r24
     766:	8f e6       	ldi	r24, 0x6F	; 111
     768:	90 e0       	ldi	r25, 0x00	; 0
     76a:	9f 93       	push	r25
     76c:	8f 93       	push	r24
     76e:	0e 94 6b 1a 	call	0x34d6	; 0x34d6 <printf>
	lcd_1_strin();	
     772:	0e 94 19 1a 	call	0x3432	; 0x3432 <lcd_1_strin>
}
     776:	0f 90       	pop	r0
     778:	0f 90       	pop	r0
     77a:	0f 90       	pop	r0
     77c:	0f 90       	pop	r0
     77e:	0f 90       	pop	r0
     780:	0f 90       	pop	r0
     782:	08 95       	ret

00000784 <build_menu_voltage_resting_time>:
//------------------------------------------------------------------------------------------------------------------
static void build_menu_voltage_resting_time(void)
{
	lcd_1_strin();
     784:	0e 94 19 1a 	call	0x3432	; 0x3432 <lcd_1_strin>
	printf_P(PSTR(" Resting Time   "));
     788:	81 e3       	ldi	r24, 0x31	; 49
     78a:	91 e0       	ldi	r25, 0x01	; 1
     78c:	9f 93       	push	r25
     78e:	8f 93       	push	r24
     790:	0e 94 81 1a 	call	0x3502	; 0x3502 <printf_P>
	lcd_2_strin();
     794:	0e 94 20 1a 	call	0x3440	; 0x3440 <lcd_2_strin>
	printf("%.5s     Save   ",time_rest_bat.string_setp_time);
     798:	80 e4       	ldi	r24, 0x40	; 64
     79a:	91 e0       	ldi	r25, 0x01	; 1
     79c:	9f 93       	push	r25
     79e:	8f 93       	push	r24
     7a0:	8f e6       	ldi	r24, 0x6F	; 111
     7a2:	90 e0       	ldi	r25, 0x00	; 0
     7a4:	9f 93       	push	r25
     7a6:	8f 93       	push	r24
     7a8:	0e 94 6b 1a 	call	0x34d6	; 0x34d6 <printf>
	lcd_1_strin();	
     7ac:	0e 94 19 1a 	call	0x3432	; 0x3432 <lcd_1_strin>
}
     7b0:	0f 90       	pop	r0
     7b2:	0f 90       	pop	r0
     7b4:	0f 90       	pop	r0
     7b6:	0f 90       	pop	r0
     7b8:	0f 90       	pop	r0
     7ba:	0f 90       	pop	r0
     7bc:	08 95       	ret

000007be <build_menu_temperature_working_time>:
//------------------------------------------------------------------------------------------------------------------
static void build_menu_temperature_working_time(void)
{
	lcd_1_strin();
     7be:	0e 94 19 1a 	call	0x3432	; 0x3432 <lcd_1_strin>
	printf_P(PSTR(" Working Time   "));
     7c2:	80 e2       	ldi	r24, 0x20	; 32
     7c4:	91 e0       	ldi	r25, 0x01	; 1
     7c6:	9f 93       	push	r25
     7c8:	8f 93       	push	r24
     7ca:	0e 94 81 1a 	call	0x3502	; 0x3502 <printf_P>
	lcd_2_strin();
     7ce:	0e 94 20 1a 	call	0x3440	; 0x3440 <lcd_2_strin>
	printf("%.5s     Save   ",time_work_temperat.string_setp_time);
     7d2:	80 e2       	ldi	r24, 0x20	; 32
     7d4:	91 e0       	ldi	r25, 0x01	; 1
     7d6:	9f 93       	push	r25
     7d8:	8f 93       	push	r24
     7da:	8f e6       	ldi	r24, 0x6F	; 111
     7dc:	90 e0       	ldi	r25, 0x00	; 0
     7de:	9f 93       	push	r25
     7e0:	8f 93       	push	r24
     7e2:	0e 94 6b 1a 	call	0x34d6	; 0x34d6 <printf>
	lcd_1_strin();	
     7e6:	0e 94 19 1a 	call	0x3432	; 0x3432 <lcd_1_strin>
}
     7ea:	0f 90       	pop	r0
     7ec:	0f 90       	pop	r0
     7ee:	0f 90       	pop	r0
     7f0:	0f 90       	pop	r0
     7f2:	0f 90       	pop	r0
     7f4:	0f 90       	pop	r0
     7f6:	08 95       	ret

000007f8 <build_menu_temperature_resting_time>:
//------------------------------------------------------------------------------------------------------------------
static void build_menu_temperature_resting_time(void)
{
	lcd_1_strin();
     7f8:	0e 94 19 1a 	call	0x3432	; 0x3432 <lcd_1_strin>
	printf_P(PSTR(" Resting Time   "));
     7fc:	8f e0       	ldi	r24, 0x0F	; 15
     7fe:	91 e0       	ldi	r25, 0x01	; 1
     800:	9f 93       	push	r25
     802:	8f 93       	push	r24
     804:	0e 94 81 1a 	call	0x3502	; 0x3502 <printf_P>
	lcd_2_strin();
     808:	0e 94 20 1a 	call	0x3440	; 0x3440 <lcd_2_strin>
	printf("%.5s     Save   ",time_rest_temperat.string_setp_time);
     80c:	86 e9       	ldi	r24, 0x96	; 150
     80e:	91 e0       	ldi	r25, 0x01	; 1
     810:	9f 93       	push	r25
     812:	8f 93       	push	r24
     814:	8f e6       	ldi	r24, 0x6F	; 111
     816:	90 e0       	ldi	r25, 0x00	; 0
     818:	9f 93       	push	r25
     81a:	8f 93       	push	r24
     81c:	0e 94 6b 1a 	call	0x34d6	; 0x34d6 <printf>
	lcd_1_strin();	
     820:	0e 94 19 1a 	call	0x3432	; 0x3432 <lcd_1_strin>
}
     824:	0f 90       	pop	r0
     826:	0f 90       	pop	r0
     828:	0f 90       	pop	r0
     82a:	0f 90       	pop	r0
     82c:	0f 90       	pop	r0
     82e:	0f 90       	pop	r0
     830:	08 95       	ret

00000832 <build_menu_battery_lower_limit>:
	lcd_1_strin();	
}
//------------------------------------------------------------------------------------------------------------------
static void build_menu_battery_lower_limit(void)
{
	lcd_1_strin();
     832:	0e 94 19 1a 	call	0x3432	; 0x3432 <lcd_1_strin>
	printf_P(PSTR("Bat. lower limit"));
     836:	8c ed       	ldi	r24, 0xDC	; 220
     838:	90 e0       	ldi	r25, 0x00	; 0
     83a:	9f 93       	push	r25
     83c:	8f 93       	push	r24
     83e:	0e 94 81 1a 	call	0x3502	; 0x3502 <printf_P>
	lcd_2_strin();
     842:	0e 94 20 1a 	call	0x3440	; 0x3440 <lcd_2_strin>
	printf("%s      Save  ",battery_voltage_string_setp_value_low);
     846:	81 eb       	ldi	r24, 0xB1	; 177
     848:	91 e0       	ldi	r25, 0x01	; 1
     84a:	9f 93       	push	r25
     84c:	8f 93       	push	r24
     84e:	80 e8       	ldi	r24, 0x80	; 128
     850:	90 e0       	ldi	r25, 0x00	; 0
     852:	9f 93       	push	r25
     854:	8f 93       	push	r24
     856:	0e 94 6b 1a 	call	0x34d6	; 0x34d6 <printf>
	lcd_1_strin();	
     85a:	0e 94 19 1a 	call	0x3432	; 0x3432 <lcd_1_strin>
}
     85e:	0f 90       	pop	r0
     860:	0f 90       	pop	r0
     862:	0f 90       	pop	r0
     864:	0f 90       	pop	r0
     866:	0f 90       	pop	r0
     868:	0f 90       	pop	r0
     86a:	08 95       	ret

0000086c <build_menu_temperature_lower_limit>:
//------------------------------------------------------------------------------------------------------------------
//static void build_menu_battery_high_limit(void);
//------------------------------------------------------------------------------------------------------------------
static void build_menu_temperature_lower_limit(void)
{
	lcd_1_strin();
     86c:	0e 94 19 1a 	call	0x3432	; 0x3432 <lcd_1_strin>
	printf_P(PSTR("Temp. low limit "));
     870:	8b ec       	ldi	r24, 0xCB	; 203
     872:	90 e0       	ldi	r25, 0x00	; 0
     874:	9f 93       	push	r25
     876:	8f 93       	push	r24
     878:	0e 94 81 1a 	call	0x3502	; 0x3502 <printf_P>
	lcd_2_strin();
     87c:	0e 94 20 1a 	call	0x3440	; 0x3440 <lcd_2_strin>
	printf("%s    Save  ",temperature.string_setp_value_low);
     880:	86 e6       	ldi	r24, 0x66	; 102
     882:	91 e0       	ldi	r25, 0x01	; 1
     884:	9f 93       	push	r25
     886:	8f 93       	push	r24
     888:	8f e8       	ldi	r24, 0x8F	; 143
     88a:	90 e0       	ldi	r25, 0x00	; 0
     88c:	9f 93       	push	r25
     88e:	8f 93       	push	r24
     890:	0e 94 6b 1a 	call	0x34d6	; 0x34d6 <printf>
	lcd_1_strin();	
     894:	0e 94 19 1a 	call	0x3432	; 0x3432 <lcd_1_strin>
}
     898:	0f 90       	pop	r0
     89a:	0f 90       	pop	r0
     89c:	0f 90       	pop	r0
     89e:	0f 90       	pop	r0
     8a0:	0f 90       	pop	r0
     8a2:	0f 90       	pop	r0
     8a4:	08 95       	ret

000008a6 <build_menu_temperature_high_limit>:
//------------------------------------------------------------------------------------------------------------------
static void build_menu_temperature_high_limit(void)
{
	lcd_1_strin();
     8a6:	0e 94 19 1a 	call	0x3432	; 0x3432 <lcd_1_strin>
	printf_P(PSTR("Temp. high limit"));
     8aa:	88 e9       	ldi	r24, 0x98	; 152
     8ac:	90 e0       	ldi	r25, 0x00	; 0
     8ae:	9f 93       	push	r25
     8b0:	8f 93       	push	r24
     8b2:	0e 94 81 1a 	call	0x3502	; 0x3502 <printf_P>
	lcd_2_strin();
     8b6:	0e 94 20 1a 	call	0x3440	; 0x3440 <lcd_2_strin>
	printf("%s    Save  ",temperature.string_setp_value_hight);
     8ba:	8d e5       	ldi	r24, 0x5D	; 93
     8bc:	91 e0       	ldi	r25, 0x01	; 1
     8be:	9f 93       	push	r25
     8c0:	8f 93       	push	r24
     8c2:	8f e8       	ldi	r24, 0x8F	; 143
     8c4:	90 e0       	ldi	r25, 0x00	; 0
     8c6:	9f 93       	push	r25
     8c8:	8f 93       	push	r24
     8ca:	0e 94 6b 1a 	call	0x34d6	; 0x34d6 <printf>
	lcd_1_strin();	
     8ce:	0e 94 19 1a 	call	0x3432	; 0x3432 <lcd_1_strin>
}
     8d2:	0f 90       	pop	r0
     8d4:	0f 90       	pop	r0
     8d6:	0f 90       	pop	r0
     8d8:	0f 90       	pop	r0
     8da:	0f 90       	pop	r0
     8dc:	0f 90       	pop	r0
     8de:	08 95       	ret

000008e0 <blinc_cursor_0>:
	}
}

static void blinc_cursor_0(void)
{
hd44780_wait_ready();
     8e0:	0e 94 9d 19 	call	0x333a	; 0x333a <hd44780_wait_ready>
hd44780_outcmd(HD44780_DDADDR(0x40));
     8e4:	60 e0       	ldi	r22, 0x00	; 0
     8e6:	80 ec       	ldi	r24, 0xC0	; 192
     8e8:	0e 94 7e 19 	call	0x32fc	; 0x32fc <hd44780_outbyte>
hd44780_wait_ready();
     8ec:	0e 94 9d 19 	call	0x333a	; 0x333a <hd44780_wait_ready>
hd44780_outcmd(HD44780_DISPCTL(1, 1, 1));
     8f0:	60 e0       	ldi	r22, 0x00	; 0
     8f2:	8f e0       	ldi	r24, 0x0F	; 15
     8f4:	0e 94 7e 19 	call	0x32fc	; 0x32fc <hd44780_outbyte>
     8f8:	08 95       	ret

000008fa <blinc_cursor>:
			}

				}*/
//------------------------------------------------------------------------------------------------------------------
static void blinc_cursor(uint8_t n){
	if(n==0) blinc_cursor_0();
     8fa:	81 11       	cpse	r24, r1
     8fc:	03 c0       	rjmp	.+6      	; 0x904 <blinc_cursor+0xa>
     8fe:	0e 94 70 04 	call	0x8e0	; 0x8e0 <blinc_cursor_0>
     902:	08 95       	ret
	else if(n==1) blinc_cursor_1();
     904:	81 30       	cpi	r24, 0x01	; 1
     906:	69 f4       	brne	.+26     	; 0x922 <blinc_cursor+0x28>
hd44780_outcmd(HD44780_DISPCTL(1, 1, 1));
}
//------------------------------------------------------------------------------------------------------------------
static void blinc_cursor_1(void)
{
hd44780_wait_ready();
     908:	0e 94 9d 19 	call	0x333a	; 0x333a <hd44780_wait_ready>
hd44780_outcmd(HD44780_DDADDR(0x41));
     90c:	60 e0       	ldi	r22, 0x00	; 0
     90e:	81 ec       	ldi	r24, 0xC1	; 193
     910:	0e 94 7e 19 	call	0x32fc	; 0x32fc <hd44780_outbyte>
hd44780_wait_ready();
     914:	0e 94 9d 19 	call	0x333a	; 0x333a <hd44780_wait_ready>
hd44780_outcmd(HD44780_DISPCTL(1, 1, 1));
     918:	60 e0       	ldi	r22, 0x00	; 0
     91a:	8f e0       	ldi	r24, 0x0F	; 15
     91c:	0e 94 7e 19 	call	0x32fc	; 0x32fc <hd44780_outbyte>
     920:	08 95       	ret
				}*/
//------------------------------------------------------------------------------------------------------------------
static void blinc_cursor(uint8_t n){
	if(n==0) blinc_cursor_0();
	else if(n==1) blinc_cursor_1();
	else if(n==2) blinc_cursor_2();
     922:	82 30       	cpi	r24, 0x02	; 2
     924:	69 f4       	brne	.+26     	; 0x940 <blinc_cursor+0x46>
hd44780_outcmd(HD44780_DISPCTL(1, 1, 1));
}
//------------------------------------------------------------------------------------------------------------------
static void blinc_cursor_2(void)
{
hd44780_wait_ready();
     926:	0e 94 9d 19 	call	0x333a	; 0x333a <hd44780_wait_ready>
hd44780_outcmd(HD44780_DDADDR(0x42));
     92a:	60 e0       	ldi	r22, 0x00	; 0
     92c:	82 ec       	ldi	r24, 0xC2	; 194
     92e:	0e 94 7e 19 	call	0x32fc	; 0x32fc <hd44780_outbyte>
hd44780_wait_ready();
     932:	0e 94 9d 19 	call	0x333a	; 0x333a <hd44780_wait_ready>
hd44780_outcmd(HD44780_DISPCTL(1, 1, 1));
     936:	60 e0       	ldi	r22, 0x00	; 0
     938:	8f e0       	ldi	r24, 0x0F	; 15
     93a:	0e 94 7e 19 	call	0x32fc	; 0x32fc <hd44780_outbyte>
     93e:	08 95       	ret
//------------------------------------------------------------------------------------------------------------------
static void blinc_cursor(uint8_t n){
	if(n==0) blinc_cursor_0();
	else if(n==1) blinc_cursor_1();
	else if(n==2) blinc_cursor_2();
	else if(n==3) blinc_cursor_3();
     940:	83 30       	cpi	r24, 0x03	; 3
     942:	69 f4       	brne	.+26     	; 0x95e <blinc_cursor+0x64>
hd44780_outcmd(HD44780_DISPCTL(1, 1, 1));
}
//------------------------------------------------------------------------------------------------------------------
static void blinc_cursor_3(void)
{
hd44780_wait_ready();
     944:	0e 94 9d 19 	call	0x333a	; 0x333a <hd44780_wait_ready>
hd44780_outcmd(HD44780_DDADDR(0x43));
     948:	60 e0       	ldi	r22, 0x00	; 0
     94a:	83 ec       	ldi	r24, 0xC3	; 195
     94c:	0e 94 7e 19 	call	0x32fc	; 0x32fc <hd44780_outbyte>
hd44780_wait_ready();
     950:	0e 94 9d 19 	call	0x333a	; 0x333a <hd44780_wait_ready>
hd44780_outcmd(HD44780_DISPCTL(1, 1, 1));
     954:	60 e0       	ldi	r22, 0x00	; 0
     956:	8f e0       	ldi	r24, 0x0F	; 15
     958:	0e 94 7e 19 	call	0x32fc	; 0x32fc <hd44780_outbyte>
     95c:	08 95       	ret
static void blinc_cursor(uint8_t n){
	if(n==0) blinc_cursor_0();
	else if(n==1) blinc_cursor_1();
	else if(n==2) blinc_cursor_2();
	else if(n==3) blinc_cursor_3();
	else if(n==4) blinc_cursor_4();
     95e:	84 30       	cpi	r24, 0x04	; 4
     960:	69 f4       	brne	.+26     	; 0x97c <blinc_cursor+0x82>
hd44780_outcmd(HD44780_DISPCTL(1, 1, 1));
}
//------------------------------------------------------------------------------------------------------------------
static void blinc_cursor_4(void)
{
hd44780_wait_ready();
     962:	0e 94 9d 19 	call	0x333a	; 0x333a <hd44780_wait_ready>
hd44780_outcmd(HD44780_DDADDR(0x44));
     966:	60 e0       	ldi	r22, 0x00	; 0
     968:	84 ec       	ldi	r24, 0xC4	; 196
     96a:	0e 94 7e 19 	call	0x32fc	; 0x32fc <hd44780_outbyte>
hd44780_wait_ready();
     96e:	0e 94 9d 19 	call	0x333a	; 0x333a <hd44780_wait_ready>
hd44780_outcmd(HD44780_DISPCTL(1, 1, 1));
     972:	60 e0       	ldi	r22, 0x00	; 0
     974:	8f e0       	ldi	r24, 0x0F	; 15
     976:	0e 94 7e 19 	call	0x32fc	; 0x32fc <hd44780_outbyte>
     97a:	08 95       	ret
	if(n==0) blinc_cursor_0();
	else if(n==1) blinc_cursor_1();
	else if(n==2) blinc_cursor_2();
	else if(n==3) blinc_cursor_3();
	else if(n==4) blinc_cursor_4();
	else if(n==10) blinc_cursor_10();
     97c:	8a 30       	cpi	r24, 0x0A	; 10
     97e:	69 f4       	brne	.+26     	; 0x99a <blinc_cursor+0xa0>
hd44780_outcmd(HD44780_DISPCTL(1, 1, 1));
}*/
//------------------------------------------------------------------------------------------------------------------
static void blinc_cursor_10(void)
{
hd44780_wait_ready();
     980:	0e 94 9d 19 	call	0x333a	; 0x333a <hd44780_wait_ready>
hd44780_outcmd(HD44780_DDADDR(0x4a));
     984:	60 e0       	ldi	r22, 0x00	; 0
     986:	8a ec       	ldi	r24, 0xCA	; 202
     988:	0e 94 7e 19 	call	0x32fc	; 0x32fc <hd44780_outbyte>
hd44780_wait_ready();
     98c:	0e 94 9d 19 	call	0x333a	; 0x333a <hd44780_wait_ready>
hd44780_outcmd(HD44780_DISPCTL(1, 1, 1));
     990:	60 e0       	ldi	r22, 0x00	; 0
     992:	8f e0       	ldi	r24, 0x0F	; 15
     994:	0e 94 7e 19 	call	0x32fc	; 0x32fc <hd44780_outbyte>
     998:	08 95       	ret
	else if(n==2) blinc_cursor_2();
	else if(n==3) blinc_cursor_3();
	else if(n==4) blinc_cursor_4();
	else if(n==10) blinc_cursor_10();
	else {
		index_cursor=0;
     99a:	10 92 1a 01 	sts	0x011A, r1	; 0x80011a <index_cursor>
		blinc_cursor_0();
     99e:	0e 94 70 04 	call	0x8e0	; 0x8e0 <blinc_cursor_0>
     9a2:	08 95       	ret

000009a4 <clr_blink>:
}*/
//------------------------------------------------------------------------------------------------------------------

static void clr_blink(void)
{
hd44780_wait_ready();
     9a4:	0e 94 9d 19 	call	0x333a	; 0x333a <hd44780_wait_ready>
hd44780_outcmd(HD44780_DISPCTL(1, 1, 0));
     9a8:	60 e0       	ldi	r22, 0x00	; 0
     9aa:	8e e0       	ldi	r24, 0x0E	; 14
     9ac:	0e 94 7e 19 	call	0x32fc	; 0x32fc <hd44780_outbyte>
     9b0:	08 95       	ret

000009b2 <store_setp>:


}
//------------------------------------------------------------------------------------------------------------------
static void store_setp(void)
{
     9b2:	8f 92       	push	r8
     9b4:	9f 92       	push	r9
     9b6:	af 92       	push	r10
     9b8:	bf 92       	push	r11
     9ba:	ff 92       	push	r15
     9bc:	0f 93       	push	r16
     9be:	1f 93       	push	r17
     9c0:	cf 93       	push	r28
     9c2:	df 93       	push	r29
	wdt_reset ();
     9c4:	a8 95       	wdr
	eeprom_write_byte(&ee_setp_work_bat_time_7,time_work_bat.string_setp_time[7]);
	eeprom_is_ready 	( );
	eeprom_write_byte(&ee_setp_work_bat_time_8,time_work_bat.string_setp_time[8]);
	eeprom_is_ready 	( );
*/
	time_work_bat.setp_time_bin=36000*(time_work_bat.string_setp_time[0]&0x0F)+3600*(time_work_bat.string_setp_time[1]&0x0F)+600*(time_work_bat.string_setp_time[3]&0x0F)+60*(time_work_bat.string_setp_time[4]&0x0F)+10*(time_work_bat.string_setp_time[6]&0x0F)+(time_work_bat.string_setp_time[7]&0x0F);
     9c6:	ea e7       	ldi	r30, 0x7A	; 122
     9c8:	f1 e0       	ldi	r31, 0x01	; 1
     9ca:	20 81       	ld	r18, Z
     9cc:	2f 70       	andi	r18, 0x0F	; 15
     9ce:	30 e0       	ldi	r19, 0x00	; 0
     9d0:	a0 ea       	ldi	r26, 0xA0	; 160
     9d2:	bc e8       	ldi	r27, 0x8C	; 140
     9d4:	0e 94 49 1a 	call	0x3492	; 0x3492 <__umulhisi3>
     9d8:	21 81       	ldd	r18, Z+1	; 0x01
     9da:	2f 70       	andi	r18, 0x0F	; 15
     9dc:	00 e1       	ldi	r16, 0x10	; 16
     9de:	1e e0       	ldi	r17, 0x0E	; 14
     9e0:	20 9f       	mul	r18, r16
     9e2:	a0 01       	movw	r20, r0
     9e4:	21 9f       	mul	r18, r17
     9e6:	50 0d       	add	r21, r0
     9e8:	11 24       	eor	r1, r1
     9ea:	4a 01       	movw	r8, r20
     9ec:	55 0f       	add	r21, r21
     9ee:	aa 08       	sbc	r10, r10
     9f0:	bb 08       	sbc	r11, r11
     9f2:	ab 01       	movw	r20, r22
     9f4:	bc 01       	movw	r22, r24
     9f6:	48 0d       	add	r20, r8
     9f8:	59 1d       	adc	r21, r9
     9fa:	6a 1d       	adc	r22, r10
     9fc:	7b 1d       	adc	r23, r11
     9fe:	23 81       	ldd	r18, Z+3	; 0x03
     a00:	2f 70       	andi	r18, 0x0F	; 15
     a02:	c8 e5       	ldi	r28, 0x58	; 88
     a04:	d2 e0       	ldi	r29, 0x02	; 2
     a06:	2c 9f       	mul	r18, r28
     a08:	c0 01       	movw	r24, r0
     a0a:	2d 9f       	mul	r18, r29
     a0c:	90 0d       	add	r25, r0
     a0e:	11 24       	eor	r1, r1
     a10:	09 2e       	mov	r0, r25
     a12:	00 0c       	add	r0, r0
     a14:	aa 0b       	sbc	r26, r26
     a16:	bb 0b       	sbc	r27, r27
     a18:	48 0f       	add	r20, r24
     a1a:	59 1f       	adc	r21, r25
     a1c:	6a 1f       	adc	r22, r26
     a1e:	7b 1f       	adc	r23, r27
     a20:	84 81       	ldd	r24, Z+4	; 0x04
     a22:	8f 70       	andi	r24, 0x0F	; 15
     a24:	0f 2e       	mov	r0, r31
     a26:	fc e3       	ldi	r31, 0x3C	; 60
     a28:	ff 2e       	mov	r15, r31
     a2a:	f0 2d       	mov	r31, r0
     a2c:	f8 9e       	mul	r15, r24
     a2e:	c0 01       	movw	r24, r0
     a30:	11 24       	eor	r1, r1
     a32:	09 2e       	mov	r0, r25
     a34:	00 0c       	add	r0, r0
     a36:	aa 0b       	sbc	r26, r26
     a38:	bb 0b       	sbc	r27, r27
     a3a:	48 0f       	add	r20, r24
     a3c:	59 1f       	adc	r21, r25
     a3e:	6a 1f       	adc	r22, r26
     a40:	7b 1f       	adc	r23, r27
     a42:	26 81       	ldd	r18, Z+6	; 0x06
     a44:	2f 70       	andi	r18, 0x0F	; 15
     a46:	30 e0       	ldi	r19, 0x00	; 0
     a48:	c9 01       	movw	r24, r18
     a4a:	88 0f       	add	r24, r24
     a4c:	99 1f       	adc	r25, r25
     a4e:	22 0f       	add	r18, r18
     a50:	33 1f       	adc	r19, r19
     a52:	22 0f       	add	r18, r18
     a54:	33 1f       	adc	r19, r19
     a56:	22 0f       	add	r18, r18
     a58:	33 1f       	adc	r19, r19
     a5a:	82 0f       	add	r24, r18
     a5c:	93 1f       	adc	r25, r19
     a5e:	09 2e       	mov	r0, r25
     a60:	00 0c       	add	r0, r0
     a62:	aa 0b       	sbc	r26, r26
     a64:	bb 0b       	sbc	r27, r27
     a66:	48 0f       	add	r20, r24
     a68:	59 1f       	adc	r21, r25
     a6a:	6a 1f       	adc	r22, r26
     a6c:	7b 1f       	adc	r23, r27
     a6e:	87 81       	ldd	r24, Z+7	; 0x07
     a70:	8f 70       	andi	r24, 0x0F	; 15
     a72:	48 0f       	add	r20, r24
     a74:	51 1d       	adc	r21, r1
     a76:	61 1d       	adc	r22, r1
     a78:	71 1d       	adc	r23, r1
     a7a:	41 87       	std	Z+9, r20	; 0x09
     a7c:	52 87       	std	Z+10, r21	; 0x0a
     a7e:	63 87       	std	Z+11, r22	; 0x0b
     a80:	74 87       	std	Z+12, r23	; 0x0c
	eeprom_is_ready 	( );
     a82:	8c b3       	in	r24, 0x1c	; 28
	eeprom_write_dword(&ee_work_bat_setp_time_bin_1,time_work_bat.setp_time_bin);
     a84:	88 e1       	ldi	r24, 0x18	; 24
     a86:	90 e0       	ldi	r25, 0x00	; 0
     a88:	0e 94 59 1d 	call	0x3ab2	; 0x3ab2 <eeprom_write_dword>
//	eeprom_is_ready 	( );
//	eeprom_write_dword(&ee_work_bat_setp_time_bin_2,time_work_bat.setp_time_bin);
//	eeprom_is_ready 	( );
//	eeprom_write_dword(&ee_work_bat_setp_time_bin_3,time_work_bat.setp_time_bin);
	//-----------------------------------------------------------------
	wdt_reset ();
     a8c:	a8 95       	wdr
	eeprom_write_byte(&ee_setp_rest_bat_time_7,time_rest_bat.string_setp_time[7]);
	eeprom_is_ready 	( );
	eeprom_write_byte(&ee_setp_rest_bat_time_8,time_rest_bat.string_setp_time[8]);
	eeprom_is_ready 	( );
	*/
	time_rest_bat.setp_time_bin=36000*(time_rest_bat.string_setp_time[0]&0x0F)+3600*(time_rest_bat.string_setp_time[1]&0x0F)+600*(time_rest_bat.string_setp_time[3]&0x0F)+60*(time_rest_bat.string_setp_time[4]&0x0F)+10*(time_rest_bat.string_setp_time[6]&0x0F)+(time_rest_bat.string_setp_time[7]&0x0F);
     a8e:	e0 e4       	ldi	r30, 0x40	; 64
     a90:	f1 e0       	ldi	r31, 0x01	; 1
     a92:	20 81       	ld	r18, Z
     a94:	2f 70       	andi	r18, 0x0F	; 15
     a96:	30 e0       	ldi	r19, 0x00	; 0
     a98:	a0 ea       	ldi	r26, 0xA0	; 160
     a9a:	bc e8       	ldi	r27, 0x8C	; 140
     a9c:	0e 94 49 1a 	call	0x3492	; 0x3492 <__umulhisi3>
     aa0:	21 81       	ldd	r18, Z+1	; 0x01
     aa2:	2f 70       	andi	r18, 0x0F	; 15
     aa4:	20 9f       	mul	r18, r16
     aa6:	a0 01       	movw	r20, r0
     aa8:	21 9f       	mul	r18, r17
     aaa:	50 0d       	add	r21, r0
     aac:	11 24       	eor	r1, r1
     aae:	4a 01       	movw	r8, r20
     ab0:	55 0f       	add	r21, r21
     ab2:	aa 08       	sbc	r10, r10
     ab4:	bb 08       	sbc	r11, r11
     ab6:	ab 01       	movw	r20, r22
     ab8:	bc 01       	movw	r22, r24
     aba:	48 0d       	add	r20, r8
     abc:	59 1d       	adc	r21, r9
     abe:	6a 1d       	adc	r22, r10
     ac0:	7b 1d       	adc	r23, r11
     ac2:	23 81       	ldd	r18, Z+3	; 0x03
     ac4:	2f 70       	andi	r18, 0x0F	; 15
     ac6:	2c 9f       	mul	r18, r28
     ac8:	c0 01       	movw	r24, r0
     aca:	2d 9f       	mul	r18, r29
     acc:	90 0d       	add	r25, r0
     ace:	11 24       	eor	r1, r1
     ad0:	09 2e       	mov	r0, r25
     ad2:	00 0c       	add	r0, r0
     ad4:	aa 0b       	sbc	r26, r26
     ad6:	bb 0b       	sbc	r27, r27
     ad8:	48 0f       	add	r20, r24
     ada:	59 1f       	adc	r21, r25
     adc:	6a 1f       	adc	r22, r26
     ade:	7b 1f       	adc	r23, r27
     ae0:	84 81       	ldd	r24, Z+4	; 0x04
     ae2:	8f 70       	andi	r24, 0x0F	; 15
     ae4:	f8 9e       	mul	r15, r24
     ae6:	c0 01       	movw	r24, r0
     ae8:	11 24       	eor	r1, r1
     aea:	09 2e       	mov	r0, r25
     aec:	00 0c       	add	r0, r0
     aee:	aa 0b       	sbc	r26, r26
     af0:	bb 0b       	sbc	r27, r27
     af2:	48 0f       	add	r20, r24
     af4:	59 1f       	adc	r21, r25
     af6:	6a 1f       	adc	r22, r26
     af8:	7b 1f       	adc	r23, r27
     afa:	26 81       	ldd	r18, Z+6	; 0x06
     afc:	2f 70       	andi	r18, 0x0F	; 15
     afe:	30 e0       	ldi	r19, 0x00	; 0
     b00:	c9 01       	movw	r24, r18
     b02:	88 0f       	add	r24, r24
     b04:	99 1f       	adc	r25, r25
     b06:	22 0f       	add	r18, r18
     b08:	33 1f       	adc	r19, r19
     b0a:	22 0f       	add	r18, r18
     b0c:	33 1f       	adc	r19, r19
     b0e:	22 0f       	add	r18, r18
     b10:	33 1f       	adc	r19, r19
     b12:	82 0f       	add	r24, r18
     b14:	93 1f       	adc	r25, r19
     b16:	09 2e       	mov	r0, r25
     b18:	00 0c       	add	r0, r0
     b1a:	aa 0b       	sbc	r26, r26
     b1c:	bb 0b       	sbc	r27, r27
     b1e:	48 0f       	add	r20, r24
     b20:	59 1f       	adc	r21, r25
     b22:	6a 1f       	adc	r22, r26
     b24:	7b 1f       	adc	r23, r27
     b26:	87 81       	ldd	r24, Z+7	; 0x07
     b28:	8f 70       	andi	r24, 0x0F	; 15
     b2a:	48 0f       	add	r20, r24
     b2c:	51 1d       	adc	r21, r1
     b2e:	61 1d       	adc	r22, r1
     b30:	71 1d       	adc	r23, r1
     b32:	41 87       	std	Z+9, r20	; 0x09
     b34:	52 87       	std	Z+10, r21	; 0x0a
     b36:	63 87       	std	Z+11, r22	; 0x0b
     b38:	74 87       	std	Z+12, r23	; 0x0c
	eeprom_is_ready 	( );
     b3a:	8c b3       	in	r24, 0x1c	; 28
	eeprom_write_dword(&ee_rest_bat_setp_time_bin_1,time_rest_bat.setp_time_bin);
     b3c:	84 e1       	ldi	r24, 0x14	; 20
     b3e:	90 e0       	ldi	r25, 0x00	; 0
     b40:	0e 94 59 1d 	call	0x3ab2	; 0x3ab2 <eeprom_write_dword>
//	eeprom_is_ready 	( );
//	eeprom_write_dword(&ee_rest_bat_setp_time_bin_2,time_rest_bat.setp_time_bin);
//	eeprom_is_ready 	( );
//	eeprom_write_dword(&ee_rest_bat_setp_time_bin_3,time_rest_bat.setp_time_bin);
	//-----------------------------------------------------------------
	wdt_reset ();
     b44:	a8 95       	wdr
	eeprom_write_byte(&ee_setp_work_temp_time_7,time_work_temperat.string_setp_time[7]);
	eeprom_is_ready 	( );
	eeprom_write_byte(&ee_setp_work_temp_time_8,time_work_temperat.string_setp_time[8]);
	eeprom_is_ready 	( );
	*/
	time_work_temperat.setp_time_bin=36000*(time_work_temperat.string_setp_time[0]&0x0F)+3600*(time_work_temperat.string_setp_time[1]&0x0F)+600*(time_work_temperat.string_setp_time[3]&0x0F)+60*(time_work_temperat.string_setp_time[4]&0x0F)+10*(time_work_temperat.string_setp_time[6]&0x0F)+(time_work_temperat.string_setp_time[7]&0x0F);
     b46:	e0 e2       	ldi	r30, 0x20	; 32
     b48:	f1 e0       	ldi	r31, 0x01	; 1
     b4a:	20 81       	ld	r18, Z
     b4c:	2f 70       	andi	r18, 0x0F	; 15
     b4e:	30 e0       	ldi	r19, 0x00	; 0
     b50:	a0 ea       	ldi	r26, 0xA0	; 160
     b52:	bc e8       	ldi	r27, 0x8C	; 140
     b54:	0e 94 49 1a 	call	0x3492	; 0x3492 <__umulhisi3>
     b58:	21 81       	ldd	r18, Z+1	; 0x01
     b5a:	2f 70       	andi	r18, 0x0F	; 15
     b5c:	20 9f       	mul	r18, r16
     b5e:	a0 01       	movw	r20, r0
     b60:	21 9f       	mul	r18, r17
     b62:	50 0d       	add	r21, r0
     b64:	11 24       	eor	r1, r1
     b66:	4a 01       	movw	r8, r20
     b68:	55 0f       	add	r21, r21
     b6a:	aa 08       	sbc	r10, r10
     b6c:	bb 08       	sbc	r11, r11
     b6e:	ab 01       	movw	r20, r22
     b70:	bc 01       	movw	r22, r24
     b72:	48 0d       	add	r20, r8
     b74:	59 1d       	adc	r21, r9
     b76:	6a 1d       	adc	r22, r10
     b78:	7b 1d       	adc	r23, r11
     b7a:	23 81       	ldd	r18, Z+3	; 0x03
     b7c:	2f 70       	andi	r18, 0x0F	; 15
     b7e:	2c 9f       	mul	r18, r28
     b80:	c0 01       	movw	r24, r0
     b82:	2d 9f       	mul	r18, r29
     b84:	90 0d       	add	r25, r0
     b86:	11 24       	eor	r1, r1
     b88:	09 2e       	mov	r0, r25
     b8a:	00 0c       	add	r0, r0
     b8c:	aa 0b       	sbc	r26, r26
     b8e:	bb 0b       	sbc	r27, r27
     b90:	48 0f       	add	r20, r24
     b92:	59 1f       	adc	r21, r25
     b94:	6a 1f       	adc	r22, r26
     b96:	7b 1f       	adc	r23, r27
     b98:	84 81       	ldd	r24, Z+4	; 0x04
     b9a:	8f 70       	andi	r24, 0x0F	; 15
     b9c:	f8 9e       	mul	r15, r24
     b9e:	c0 01       	movw	r24, r0
     ba0:	11 24       	eor	r1, r1
     ba2:	09 2e       	mov	r0, r25
     ba4:	00 0c       	add	r0, r0
     ba6:	aa 0b       	sbc	r26, r26
     ba8:	bb 0b       	sbc	r27, r27
     baa:	48 0f       	add	r20, r24
     bac:	59 1f       	adc	r21, r25
     bae:	6a 1f       	adc	r22, r26
     bb0:	7b 1f       	adc	r23, r27
     bb2:	26 81       	ldd	r18, Z+6	; 0x06
     bb4:	2f 70       	andi	r18, 0x0F	; 15
     bb6:	30 e0       	ldi	r19, 0x00	; 0
     bb8:	c9 01       	movw	r24, r18
     bba:	88 0f       	add	r24, r24
     bbc:	99 1f       	adc	r25, r25
     bbe:	22 0f       	add	r18, r18
     bc0:	33 1f       	adc	r19, r19
     bc2:	22 0f       	add	r18, r18
     bc4:	33 1f       	adc	r19, r19
     bc6:	22 0f       	add	r18, r18
     bc8:	33 1f       	adc	r19, r19
     bca:	82 0f       	add	r24, r18
     bcc:	93 1f       	adc	r25, r19
     bce:	09 2e       	mov	r0, r25
     bd0:	00 0c       	add	r0, r0
     bd2:	aa 0b       	sbc	r26, r26
     bd4:	bb 0b       	sbc	r27, r27
     bd6:	48 0f       	add	r20, r24
     bd8:	59 1f       	adc	r21, r25
     bda:	6a 1f       	adc	r22, r26
     bdc:	7b 1f       	adc	r23, r27
     bde:	87 81       	ldd	r24, Z+7	; 0x07
     be0:	8f 70       	andi	r24, 0x0F	; 15
     be2:	48 0f       	add	r20, r24
     be4:	51 1d       	adc	r21, r1
     be6:	61 1d       	adc	r22, r1
     be8:	71 1d       	adc	r23, r1
     bea:	41 87       	std	Z+9, r20	; 0x09
     bec:	52 87       	std	Z+10, r21	; 0x0a
     bee:	63 87       	std	Z+11, r22	; 0x0b
     bf0:	74 87       	std	Z+12, r23	; 0x0c
	eeprom_is_ready 	( );
     bf2:	8c b3       	in	r24, 0x1c	; 28
	eeprom_write_dword(&ee_work_temperat_setp_time_bin_1,time_work_temperat.setp_time_bin);
     bf4:	80 e1       	ldi	r24, 0x10	; 16
     bf6:	90 e0       	ldi	r25, 0x00	; 0
     bf8:	0e 94 59 1d 	call	0x3ab2	; 0x3ab2 <eeprom_write_dword>
//	eeprom_is_ready 	( );
//	eeprom_write_dword(&ee_work_temperat_setp_time_bin_2,time_work_temperat.setp_time_bin);
//	eeprom_is_ready 	( );
//	eeprom_write_dword(&ee_work_temperat_setp_time_bin_3,time_work_temperat.setp_time_bin);
	//-----------------------------------------------------------------
	wdt_reset ();
     bfc:	a8 95       	wdr
	eeprom_write_byte(&ee_setp_rest_temp_time_7,time_rest_temperat.string_setp_time[7]);
	eeprom_is_ready 	( );
	eeprom_write_byte(&ee_setp_rest_temp_time_8,time_rest_temperat.string_setp_time[8]);
	eeprom_is_ready 	( );
	*/
	time_rest_temperat.setp_time_bin=36000*(time_rest_temperat.string_setp_time[0]&0x0F)+3600*(time_rest_temperat.string_setp_time[1]&0x0F)+600*(time_rest_temperat.string_setp_time[3]&0x0F)+60*(time_rest_temperat.string_setp_time[4]&0x0F)+10*(time_rest_temperat.string_setp_time[6]&0x0F)+(time_rest_temperat.string_setp_time[7]&0x0F);
     bfe:	e6 e9       	ldi	r30, 0x96	; 150
     c00:	f1 e0       	ldi	r31, 0x01	; 1
     c02:	20 81       	ld	r18, Z
     c04:	2f 70       	andi	r18, 0x0F	; 15
     c06:	30 e0       	ldi	r19, 0x00	; 0
     c08:	a0 ea       	ldi	r26, 0xA0	; 160
     c0a:	bc e8       	ldi	r27, 0x8C	; 140
     c0c:	0e 94 49 1a 	call	0x3492	; 0x3492 <__umulhisi3>
     c10:	21 81       	ldd	r18, Z+1	; 0x01
     c12:	2f 70       	andi	r18, 0x0F	; 15
     c14:	20 9f       	mul	r18, r16
     c16:	a0 01       	movw	r20, r0
     c18:	21 9f       	mul	r18, r17
     c1a:	50 0d       	add	r21, r0
     c1c:	11 24       	eor	r1, r1
     c1e:	8a 01       	movw	r16, r20
     c20:	55 0f       	add	r21, r21
     c22:	22 0b       	sbc	r18, r18
     c24:	33 0b       	sbc	r19, r19
     c26:	ab 01       	movw	r20, r22
     c28:	bc 01       	movw	r22, r24
     c2a:	40 0f       	add	r20, r16
     c2c:	51 1f       	adc	r21, r17
     c2e:	62 1f       	adc	r22, r18
     c30:	73 1f       	adc	r23, r19
     c32:	23 81       	ldd	r18, Z+3	; 0x03
     c34:	2f 70       	andi	r18, 0x0F	; 15
     c36:	2c 9f       	mul	r18, r28
     c38:	c0 01       	movw	r24, r0
     c3a:	2d 9f       	mul	r18, r29
     c3c:	90 0d       	add	r25, r0
     c3e:	11 24       	eor	r1, r1
     c40:	09 2e       	mov	r0, r25
     c42:	00 0c       	add	r0, r0
     c44:	aa 0b       	sbc	r26, r26
     c46:	bb 0b       	sbc	r27, r27
     c48:	48 0f       	add	r20, r24
     c4a:	59 1f       	adc	r21, r25
     c4c:	6a 1f       	adc	r22, r26
     c4e:	7b 1f       	adc	r23, r27
     c50:	84 81       	ldd	r24, Z+4	; 0x04
     c52:	8f 70       	andi	r24, 0x0F	; 15
     c54:	f8 9e       	mul	r15, r24
     c56:	c0 01       	movw	r24, r0
     c58:	11 24       	eor	r1, r1
     c5a:	09 2e       	mov	r0, r25
     c5c:	00 0c       	add	r0, r0
     c5e:	aa 0b       	sbc	r26, r26
     c60:	bb 0b       	sbc	r27, r27
     c62:	48 0f       	add	r20, r24
     c64:	59 1f       	adc	r21, r25
     c66:	6a 1f       	adc	r22, r26
     c68:	7b 1f       	adc	r23, r27
     c6a:	26 81       	ldd	r18, Z+6	; 0x06
     c6c:	2f 70       	andi	r18, 0x0F	; 15
     c6e:	30 e0       	ldi	r19, 0x00	; 0
     c70:	c9 01       	movw	r24, r18
     c72:	88 0f       	add	r24, r24
     c74:	99 1f       	adc	r25, r25
     c76:	22 0f       	add	r18, r18
     c78:	33 1f       	adc	r19, r19
     c7a:	22 0f       	add	r18, r18
     c7c:	33 1f       	adc	r19, r19
     c7e:	22 0f       	add	r18, r18
     c80:	33 1f       	adc	r19, r19
     c82:	82 0f       	add	r24, r18
     c84:	93 1f       	adc	r25, r19
     c86:	09 2e       	mov	r0, r25
     c88:	00 0c       	add	r0, r0
     c8a:	aa 0b       	sbc	r26, r26
     c8c:	bb 0b       	sbc	r27, r27
     c8e:	48 0f       	add	r20, r24
     c90:	59 1f       	adc	r21, r25
     c92:	6a 1f       	adc	r22, r26
     c94:	7b 1f       	adc	r23, r27
     c96:	87 81       	ldd	r24, Z+7	; 0x07
     c98:	8f 70       	andi	r24, 0x0F	; 15
     c9a:	48 0f       	add	r20, r24
     c9c:	51 1d       	adc	r21, r1
     c9e:	61 1d       	adc	r22, r1
     ca0:	71 1d       	adc	r23, r1
     ca2:	41 87       	std	Z+9, r20	; 0x09
     ca4:	52 87       	std	Z+10, r21	; 0x0a
     ca6:	63 87       	std	Z+11, r22	; 0x0b
     ca8:	74 87       	std	Z+12, r23	; 0x0c
	eeprom_is_ready 	( );
     caa:	8c b3       	in	r24, 0x1c	; 28
	eeprom_write_dword(&ee_rest_temperat_setp_time_bin_1,time_rest_temperat.setp_time_bin);
     cac:	8c e0       	ldi	r24, 0x0C	; 12
     cae:	90 e0       	ldi	r25, 0x00	; 0
     cb0:	0e 94 59 1d 	call	0x3ab2	; 0x3ab2 <eeprom_write_dword>
//	eeprom_is_ready 	( );
//	eeprom_write_dword(&ee_rest_temperat_setp_time_bin_2,time_rest_temperat.setp_time_bin);
//	eeprom_is_ready 	( );
//	eeprom_write_dword(&ee_rest_temperat_setp_time_bin_3,time_rest_temperat.setp_time_bin);
	//-----------------------------------------------------------------
	wdt_reset ();
     cb4:	a8 95       	wdr
	eeprom_write_byte(&ee_setp_low_voltage_bat_3,battery_voltage_string_setp_value_low[3]);
	eeprom_is_ready 	( );
	eeprom_write_byte(&ee_setp_low_voltage_bat_4,battery_voltage_string_setp_value_low[4]);
	eeprom_is_ready 	( );
	*/
	battery_voltage_setp_value_low_bin=100*(battery_voltage_string_setp_value_low[0]&0x0F)+10*(battery_voltage_string_setp_value_low[1]&0x0F)+(battery_voltage_string_setp_value_low[3]&0x0F);
     cb6:	e1 eb       	ldi	r30, 0xB1	; 177
     cb8:	f1 e0       	ldi	r31, 0x01	; 1
     cba:	20 81       	ld	r18, Z
     cbc:	2f 70       	andi	r18, 0x0F	; 15
     cbe:	14 e6       	ldi	r17, 0x64	; 100
     cc0:	81 81       	ldd	r24, Z+1	; 0x01
     cc2:	8f 70       	andi	r24, 0x0F	; 15
     cc4:	90 e0       	ldi	r25, 0x00	; 0
     cc6:	bc 01       	movw	r22, r24
     cc8:	66 0f       	add	r22, r22
     cca:	77 1f       	adc	r23, r23
     ccc:	88 0f       	add	r24, r24
     cce:	99 1f       	adc	r25, r25
     cd0:	88 0f       	add	r24, r24
     cd2:	99 1f       	adc	r25, r25
     cd4:	88 0f       	add	r24, r24
     cd6:	99 1f       	adc	r25, r25
     cd8:	68 0f       	add	r22, r24
     cda:	79 1f       	adc	r23, r25
     cdc:	12 9f       	mul	r17, r18
     cde:	60 0d       	add	r22, r0
     ce0:	71 1d       	adc	r23, r1
     ce2:	11 24       	eor	r1, r1
     ce4:	83 81       	ldd	r24, Z+3	; 0x03
     ce6:	8f 70       	andi	r24, 0x0F	; 15
     ce8:	68 0f       	add	r22, r24
     cea:	71 1d       	adc	r23, r1
     cec:	70 93 b7 01 	sts	0x01B7, r23	; 0x8001b7 <battery_voltage_setp_value_low_bin+0x1>
     cf0:	60 93 b6 01 	sts	0x01B6, r22	; 0x8001b6 <battery_voltage_setp_value_low_bin>
	eeprom_is_ready 	( );
     cf4:	8c b3       	in	r24, 0x1c	; 28
	eeprom_write_word(&ee_setp_low_voltage_bat_bin_1,battery_voltage_setp_value_low_bin);
     cf6:	8a e0       	ldi	r24, 0x0A	; 10
     cf8:	90 e0       	ldi	r25, 0x00	; 0
     cfa:	0e 94 61 1d 	call	0x3ac2	; 0x3ac2 <eeprom_write_word>
	eeprom_write_byte(&ee_setp_hight_voltage_bat_6,setp_hight_voltage_bat[6]);
	eeprom_is_ready 	( );
	*/
	//-----------------------------------------------------------------
	
	wdt_reset ();
     cfe:	a8 95       	wdr
	eeprom_write_byte(&ee_setp_low_temp_5,temperature.string_setp_value_low[5]);
	eeprom_is_ready 	( );
	eeprom_write_byte(&ee_setp_low_temp_6,temperature.string_setp_value_low[6]);
	eeprom_is_ready 	( );
	*/
	temperature.setp_value_low_bin=100*(temperature.string_setp_value_low[0]&0x0F)+10*(temperature.string_setp_value_low[1]&0x0F)+(temperature.string_setp_value_low[3]&0x0F);	//##.# - ###   *10;
     d00:	cb e5       	ldi	r28, 0x5B	; 91
     d02:	d1 e0       	ldi	r29, 0x01	; 1
     d04:	2b 85       	ldd	r18, Y+11	; 0x0b
     d06:	2f 70       	andi	r18, 0x0F	; 15
     d08:	8c 85       	ldd	r24, Y+12	; 0x0c
     d0a:	8f 70       	andi	r24, 0x0F	; 15
     d0c:	90 e0       	ldi	r25, 0x00	; 0
     d0e:	bc 01       	movw	r22, r24
     d10:	66 0f       	add	r22, r22
     d12:	77 1f       	adc	r23, r23
     d14:	88 0f       	add	r24, r24
     d16:	99 1f       	adc	r25, r25
     d18:	88 0f       	add	r24, r24
     d1a:	99 1f       	adc	r25, r25
     d1c:	88 0f       	add	r24, r24
     d1e:	99 1f       	adc	r25, r25
     d20:	68 0f       	add	r22, r24
     d22:	79 1f       	adc	r23, r25
     d24:	12 9f       	mul	r17, r18
     d26:	60 0d       	add	r22, r0
     d28:	71 1d       	adc	r23, r1
     d2a:	11 24       	eor	r1, r1
     d2c:	8e 85       	ldd	r24, Y+14	; 0x0e
     d2e:	8f 70       	andi	r24, 0x0F	; 15
     d30:	68 0f       	add	r22, r24
     d32:	71 1d       	adc	r23, r1
     d34:	7b 8b       	std	Y+19, r23	; 0x13
     d36:	6a 8b       	std	Y+18, r22	; 0x12
	eeprom_is_ready 	( );
     d38:	8c b3       	in	r24, 0x1c	; 28
	eeprom_write_word(&ee_setp_low_temp_bin_1,temperature.setp_value_low_bin);
     d3a:	88 e0       	ldi	r24, 0x08	; 8
     d3c:	90 e0       	ldi	r25, 0x00	; 0
     d3e:	0e 94 61 1d 	call	0x3ac2	; 0x3ac2 <eeprom_write_word>
//	eeprom_is_ready 	( );
//	eeprom_write_word(&ee_setp_low_temp_bin_2,temperature.setp_value_low_bin);
//	eeprom_is_ready 	( );
//	eeprom_write_word(&ee_setp_low_temp_bin_3,temperature.setp_value_low_bin);
	//-----------------------------------------------------------------
	wdt_reset ();
     d42:	a8 95       	wdr
	eeprom_is_ready 	( );
	eeprom_write_byte(&ee_setp_hight_temp_6,temperature.string_setp_value_hight[6]);
	eeprom_is_ready 	( );
	*/
	
	temperature.setp_value_hight_bin=100*(temperature.string_setp_value_hight[0]&0x0F)+10*(temperature.string_setp_value_hight[1]&0x0F)+(temperature.string_setp_value_hight[3]&0x0F);	//##.# - ###   *10;
     d44:	2a 81       	ldd	r18, Y+2	; 0x02
     d46:	2f 70       	andi	r18, 0x0F	; 15
     d48:	8b 81       	ldd	r24, Y+3	; 0x03
     d4a:	8f 70       	andi	r24, 0x0F	; 15
     d4c:	90 e0       	ldi	r25, 0x00	; 0
     d4e:	bc 01       	movw	r22, r24
     d50:	66 0f       	add	r22, r22
     d52:	77 1f       	adc	r23, r23
     d54:	88 0f       	add	r24, r24
     d56:	99 1f       	adc	r25, r25
     d58:	88 0f       	add	r24, r24
     d5a:	99 1f       	adc	r25, r25
     d5c:	88 0f       	add	r24, r24
     d5e:	99 1f       	adc	r25, r25
     d60:	68 0f       	add	r22, r24
     d62:	79 1f       	adc	r23, r25
     d64:	12 9f       	mul	r17, r18
     d66:	60 0d       	add	r22, r0
     d68:	71 1d       	adc	r23, r1
     d6a:	11 24       	eor	r1, r1
     d6c:	8d 81       	ldd	r24, Y+5	; 0x05
     d6e:	8f 70       	andi	r24, 0x0F	; 15
     d70:	68 0f       	add	r22, r24
     d72:	71 1d       	adc	r23, r1
     d74:	7a 87       	std	Y+10, r23	; 0x0a
     d76:	69 87       	std	Y+9, r22	; 0x09
	eeprom_is_ready 	( );
     d78:	8c b3       	in	r24, 0x1c	; 28
	eeprom_write_word(&ee_setp_hight_temp_bin_1,temperature.setp_value_hight_bin);
     d7a:	86 e0       	ldi	r24, 0x06	; 6
     d7c:	90 e0       	ldi	r25, 0x00	; 0
     d7e:	0e 94 61 1d 	call	0x3ac2	; 0x3ac2 <eeprom_write_word>
//	eeprom_write_word(&ee_setp_hight_temp_bin_2,temperature.setp_value_hight_bin);
//	eeprom_is_ready 	( );
//	eeprom_write_word(&ee_setp_hight_temp_bin_3,temperature.setp_value_hight_bin);
	
	//-----------------------------------------------------------------
	wdt_reset ();
     d82:	a8 95       	wdr
	eeprom_is_ready 	( );
     d84:	8c b3       	in	r24, 0x1c	; 28
	eeprom_write_word(&coefficient1,battery_voltage_coefficient);
     d86:	60 91 3b 01 	lds	r22, 0x013B	; 0x80013b <battery_voltage_coefficient>
     d8a:	70 91 3c 01 	lds	r23, 0x013C	; 0x80013c <battery_voltage_coefficient+0x1>
     d8e:	84 e0       	ldi	r24, 0x04	; 4
     d90:	90 e0       	ldi	r25, 0x00	; 0
     d92:	0e 94 61 1d 	call	0x3ac2	; 0x3ac2 <eeprom_write_word>
//	eeprom_is_ready 	( );
//	eeprom_write_word(&coefficient2,battery_voltage_coefficient);
//	eeprom_is_ready 	( );
//	eeprom_write_word(&coefficient3,battery_voltage_coefficient);
	//---------------------------------------------------------------
	wdt_reset ();
     d96:	a8 95       	wdr
	eeprom_is_ready 	( );
     d98:	8c b3       	in	r24, 0x1c	; 28
	eeprom_write_byte(&ee_type_generator1,type_generator);
     d9a:	60 91 95 01 	lds	r22, 0x0195	; 0x800195 <type_generator>
     d9e:	83 e0       	ldi	r24, 0x03	; 3
     da0:	90 e0       	ldi	r25, 0x00	; 0
     da2:	0e 94 4c 1d 	call	0x3a98	; 0x3a98 <eeprom_write_byte>
//	eeprom_is_ready 	( );
//	eeprom_write_byte(&ee_type_generator2,type_generator);
//	eeprom_is_ready 	( );
//	eeprom_write_byte(&ee_type_generator3,type_generator);
	eeprom_write_byte(&ee_enable_battery_voltage,enable_battery_voltage);
     da6:	60 91 3d 01 	lds	r22, 0x013D	; 0x80013d <enable_battery_voltage>
     daa:	82 e0       	ldi	r24, 0x02	; 2
     dac:	90 e0       	ldi	r25, 0x00	; 0
     dae:	0e 94 4c 1d 	call	0x3a98	; 0x3a98 <eeprom_write_byte>
	eeprom_write_byte(&ee_enable_temperature_low,temperature.enable_low);	
     db2:	68 81       	ld	r22, Y
     db4:	81 e0       	ldi	r24, 0x01	; 1
     db6:	90 e0       	ldi	r25, 0x00	; 0
     db8:	0e 94 4c 1d 	call	0x3a98	; 0x3a98 <eeprom_write_byte>
	eeprom_write_byte(&ee_enable_temperature_hight,temperature.enable_hight);	
     dbc:	69 81       	ldd	r22, Y+1	; 0x01
     dbe:	80 e0       	ldi	r24, 0x00	; 0
     dc0:	90 e0       	ldi	r25, 0x00	; 0
     dc2:	0e 94 4c 1d 	call	0x3a98	; 0x3a98 <eeprom_write_byte>
}
     dc6:	df 91       	pop	r29
     dc8:	cf 91       	pop	r28
     dca:	1f 91       	pop	r17
     dcc:	0f 91       	pop	r16
     dce:	ff 90       	pop	r15
     dd0:	bf 90       	pop	r11
     dd2:	af 90       	pop	r10
     dd4:	9f 90       	pop	r9
     dd6:	8f 90       	pop	r8
     dd8:	08 95       	ret

00000dda <read_eeprom_setp>:
}
*/

//------------------------------------------------------------------------------------------------------------------
static void read_eeprom_setp(void)
{
     dda:	3f 92       	push	r3
     ddc:	4f 92       	push	r4
     dde:	5f 92       	push	r5
     de0:	6f 92       	push	r6
     de2:	7f 92       	push	r7
     de4:	8f 92       	push	r8
     de6:	9f 92       	push	r9
     de8:	af 92       	push	r10
     dea:	bf 92       	push	r11
     dec:	cf 92       	push	r12
     dee:	df 92       	push	r13
     df0:	ef 92       	push	r14
     df2:	ff 92       	push	r15
     df4:	0f 93       	push	r16
     df6:	1f 93       	push	r17
     df8:	cf 93       	push	r28
     dfa:	df 93       	push	r29
uint32_t val1=0;	
uint32_t val2=0;
//uint32_t val3=0;
	
wdt_reset ();	
     dfc:	a8 95       	wdr
eeprom_is_ready 	( );
time_work_bat.string_setp_time[8] = eeprom_read_byte(&ee_setp_work_bat_time_8);
//
time_work_bat.setp_time_bin=36000*(time_work_bat.string_setp_time[0]&0x0F)+3600*(time_work_bat.string_setp_time[1]&0x0F)+600*(time_work_bat.string_setp_time[3]&0x0F)+60*(time_work_bat.string_setp_time[4]&0x0F)+10*(time_work_bat.string_setp_time[6]&0x0F)+(time_work_bat.string_setp_time[7]&0x0F);
*/
eeprom_is_ready 	( );
     dfe:	8c b3       	in	r24, 0x1c	; 28
//val1
time_work_bat.setp_time_bin	=	eeprom_read_dword	(&ee_work_bat_setp_time_bin_1);
     e00:	88 e1       	ldi	r24, 0x18	; 24
     e02:	90 e0       	ldi	r25, 0x00	; 0
     e04:	0e 94 40 1d 	call	0x3a80	; 0x3a80 <eeprom_read_dword>
     e08:	6b 01       	movw	r12, r22
     e0a:	7c 01       	movw	r14, r24
     e0c:	ca e7       	ldi	r28, 0x7A	; 122
     e0e:	d1 e0       	ldi	r29, 0x01	; 1
     e10:	69 87       	std	Y+9, r22	; 0x09
     e12:	7a 87       	std	Y+10, r23	; 0x0a
     e14:	8b 87       	std	Y+11, r24	; 0x0b
     e16:	9c 87       	std	Y+12, r25	; 0x0c
//eeprom_is_ready 	( );
//val2	=	eeprom_read_dword	(&ee_work_bat_setp_time_bin_2);
//eeprom_is_ready 	( );
//val3	=	eeprom_read_dword	(&ee_work_bat_setp_time_bin_3);

wdt_reset ();	
     e18:	a8 95       	wdr
//time_work_bat.setp_time_bin  =  majority(val1,val2,val3);

val1=time_work_bat.setp_time_bin;
val2=val1/36000;
     e1a:	0f 2e       	mov	r0, r31
     e1c:	f0 ea       	ldi	r31, 0xA0	; 160
     e1e:	4f 2e       	mov	r4, r31
     e20:	fc e8       	ldi	r31, 0x8C	; 140
     e22:	5f 2e       	mov	r5, r31
     e24:	61 2c       	mov	r6, r1
     e26:	71 2c       	mov	r7, r1
     e28:	f0 2d       	mov	r31, r0
     e2a:	a3 01       	movw	r20, r6
     e2c:	92 01       	movw	r18, r4
     e2e:	0e 94 27 1a 	call	0x344e	; 0x344e <__udivmodsi4>
time_work_bat.string_setp_time[0] = ((uint8_t)val2)|0x30;		//  
     e32:	82 2f       	mov	r24, r18
     e34:	80 63       	ori	r24, 0x30	; 48
     e36:	88 83       	st	Y, r24
val1-=val2*36000;
     e38:	a0 ea       	ldi	r26, 0xA0	; 160
     e3a:	bc e8       	ldi	r27, 0x8C	; 140
     e3c:	0e 94 58 1a 	call	0x34b0	; 0x34b0 <__muluhisi3>
     e40:	c6 1a       	sub	r12, r22
     e42:	d7 0a       	sbc	r13, r23
     e44:	e8 0a       	sbc	r14, r24
     e46:	f9 0a       	sbc	r15, r25
val2=val1/3600;
     e48:	0f 2e       	mov	r0, r31
     e4a:	f0 e1       	ldi	r31, 0x10	; 16
     e4c:	8f 2e       	mov	r8, r31
     e4e:	fe e0       	ldi	r31, 0x0E	; 14
     e50:	9f 2e       	mov	r9, r31
     e52:	a1 2c       	mov	r10, r1
     e54:	b1 2c       	mov	r11, r1
     e56:	f0 2d       	mov	r31, r0
     e58:	c7 01       	movw	r24, r14
     e5a:	b6 01       	movw	r22, r12
     e5c:	a5 01       	movw	r20, r10
     e5e:	94 01       	movw	r18, r8
     e60:	0e 94 27 1a 	call	0x344e	; 0x344e <__udivmodsi4>
time_work_bat.string_setp_time[1] = ((uint8_t)val2)|0x30;
     e64:	82 2f       	mov	r24, r18
     e66:	80 63       	ori	r24, 0x30	; 48
     e68:	89 83       	std	Y+1, r24	; 0x01
time_work_bat.string_setp_time[2] = 0x3a;		// :
     e6a:	0a e3       	ldi	r16, 0x3A	; 58
     e6c:	0a 83       	std	Y+2, r16	; 0x02
val1-=val2*3600;
     e6e:	a0 e1       	ldi	r26, 0x10	; 16
     e70:	be e0       	ldi	r27, 0x0E	; 14
     e72:	0e 94 58 1a 	call	0x34b0	; 0x34b0 <__muluhisi3>
     e76:	c6 1a       	sub	r12, r22
     e78:	d7 0a       	sbc	r13, r23
     e7a:	e8 0a       	sbc	r14, r24
     e7c:	f9 0a       	sbc	r15, r25
val2=val1/600;
     e7e:	c7 01       	movw	r24, r14
     e80:	b6 01       	movw	r22, r12
     e82:	28 e5       	ldi	r18, 0x58	; 88
     e84:	32 e0       	ldi	r19, 0x02	; 2
     e86:	40 e0       	ldi	r20, 0x00	; 0
     e88:	50 e0       	ldi	r21, 0x00	; 0
     e8a:	0e 94 27 1a 	call	0x344e	; 0x344e <__udivmodsi4>
time_work_bat.string_setp_time[3] = ((uint8_t)val2)|0x30;
     e8e:	82 2f       	mov	r24, r18
     e90:	80 63       	ori	r24, 0x30	; 48
     e92:	8b 83       	std	Y+3, r24	; 0x03
val1-=val2*600;
     e94:	a8 e5       	ldi	r26, 0x58	; 88
     e96:	b2 e0       	ldi	r27, 0x02	; 2
     e98:	0e 94 58 1a 	call	0x34b0	; 0x34b0 <__muluhisi3>
     e9c:	a7 01       	movw	r20, r14
     e9e:	96 01       	movw	r18, r12
     ea0:	26 1b       	sub	r18, r22
     ea2:	37 0b       	sbc	r19, r23
     ea4:	48 0b       	sbc	r20, r24
     ea6:	59 0b       	sbc	r21, r25
     ea8:	ca 01       	movw	r24, r20
     eaa:	b9 01       	movw	r22, r18
val2=val1/60;
time_work_bat.string_setp_time[4] = ((uint8_t)val2)|0x30;
     eac:	2c e3       	ldi	r18, 0x3C	; 60
     eae:	30 e0       	ldi	r19, 0x00	; 0
     eb0:	40 e0       	ldi	r20, 0x00	; 0
     eb2:	50 e0       	ldi	r21, 0x00	; 0
     eb4:	0e 94 27 1a 	call	0x344e	; 0x344e <__udivmodsi4>
     eb8:	20 63       	ori	r18, 0x30	; 48
     eba:	2c 83       	std	Y+4, r18	; 0x04
time_work_bat.string_setp_time[5] = 0x3a;		// :
     ebc:	0d 83       	std	Y+5, r16	; 0x05
time_work_bat.string_setp_time[6] = 0x30;
     ebe:	10 e3       	ldi	r17, 0x30	; 48
     ec0:	1e 83       	std	Y+6, r17	; 0x06
time_work_bat.string_setp_time[7] = 0x30;
     ec2:	1f 83       	std	Y+7, r17	; 0x07
time_work_bat.string_setp_time[8] = 0;
     ec4:	18 86       	std	Y+8, r1	; 0x08

//----------------------------------------------------------------------------
wdt_reset ();
     ec6:	a8 95       	wdr
eeprom_is_ready 	( );
time_rest_bat.string_setp_time[8] = eeprom_read_byte(&ee_setp_rest_bat_time_8);
//
time_rest_bat.setp_time_bin=36000*(time_rest_bat.string_setp_time[0]&0x0F)+3600*(time_rest_bat.string_setp_time[1]&0x0F)+600*(time_rest_bat.string_setp_time[3]&0x0F)+60*(time_rest_bat.string_setp_time[4]&0x0F)+10*(time_rest_bat.string_setp_time[6]&0x0F)+(time_rest_bat.string_setp_time[7]&0x0F);
*/
eeprom_is_ready 	( );
     ec8:	8c b3       	in	r24, 0x1c	; 28
//val1
time_rest_bat.setp_time_bin	=	eeprom_read_dword	(&ee_rest_bat_setp_time_bin_1);
     eca:	84 e1       	ldi	r24, 0x14	; 20
     ecc:	90 e0       	ldi	r25, 0x00	; 0
     ece:	0e 94 40 1d 	call	0x3a80	; 0x3a80 <eeprom_read_dword>
     ed2:	6b 01       	movw	r12, r22
     ed4:	7c 01       	movw	r14, r24
     ed6:	c0 e4       	ldi	r28, 0x40	; 64
     ed8:	d1 e0       	ldi	r29, 0x01	; 1
     eda:	69 87       	std	Y+9, r22	; 0x09
     edc:	7a 87       	std	Y+10, r23	; 0x0a
     ede:	8b 87       	std	Y+11, r24	; 0x0b
     ee0:	9c 87       	std	Y+12, r25	; 0x0c
//eeprom_is_ready 	( );
//val2	=	eeprom_read_dword	(&ee_rest_bat_setp_time_bin_2);
//eeprom_is_ready 	( );
//val3	=	eeprom_read_dword	(&ee_rest_bat_setp_time_bin_3);

wdt_reset ();
     ee2:	a8 95       	wdr

//time_rest_bat.setp_time_bin  =  majority(val1,val2,val3);

val1=time_rest_bat.setp_time_bin;
val2=val1/36000;
     ee4:	a3 01       	movw	r20, r6
     ee6:	92 01       	movw	r18, r4
     ee8:	0e 94 27 1a 	call	0x344e	; 0x344e <__udivmodsi4>
time_rest_bat.string_setp_time[0] = (uint8_t)val2|0x30;		//  
     eec:	82 2f       	mov	r24, r18
     eee:	80 63       	ori	r24, 0x30	; 48
     ef0:	88 83       	st	Y, r24
val1-=val2*36000;
     ef2:	a0 ea       	ldi	r26, 0xA0	; 160
     ef4:	bc e8       	ldi	r27, 0x8C	; 140
     ef6:	0e 94 58 1a 	call	0x34b0	; 0x34b0 <__muluhisi3>
     efa:	c6 1a       	sub	r12, r22
     efc:	d7 0a       	sbc	r13, r23
     efe:	e8 0a       	sbc	r14, r24
     f00:	f9 0a       	sbc	r15, r25
val2=val1/3600;
     f02:	c7 01       	movw	r24, r14
     f04:	b6 01       	movw	r22, r12
     f06:	a5 01       	movw	r20, r10
     f08:	94 01       	movw	r18, r8
     f0a:	0e 94 27 1a 	call	0x344e	; 0x344e <__udivmodsi4>
time_rest_bat.string_setp_time[1] = (uint8_t)val2|0x30;
     f0e:	82 2f       	mov	r24, r18
     f10:	80 63       	ori	r24, 0x30	; 48
     f12:	89 83       	std	Y+1, r24	; 0x01
time_rest_bat.string_setp_time[2] = 0x3a;		// :
     f14:	0a 83       	std	Y+2, r16	; 0x02
val1-=val2*3600;
     f16:	a0 e1       	ldi	r26, 0x10	; 16
     f18:	be e0       	ldi	r27, 0x0E	; 14
     f1a:	0e 94 58 1a 	call	0x34b0	; 0x34b0 <__muluhisi3>
     f1e:	c6 1a       	sub	r12, r22
     f20:	d7 0a       	sbc	r13, r23
     f22:	e8 0a       	sbc	r14, r24
     f24:	f9 0a       	sbc	r15, r25
val2=val1/600;
     f26:	c7 01       	movw	r24, r14
     f28:	b6 01       	movw	r22, r12
     f2a:	28 e5       	ldi	r18, 0x58	; 88
     f2c:	32 e0       	ldi	r19, 0x02	; 2
     f2e:	40 e0       	ldi	r20, 0x00	; 0
     f30:	50 e0       	ldi	r21, 0x00	; 0
     f32:	0e 94 27 1a 	call	0x344e	; 0x344e <__udivmodsi4>
time_rest_bat.string_setp_time[3] = (uint8_t)val2|0x30;
     f36:	82 2f       	mov	r24, r18
     f38:	80 63       	ori	r24, 0x30	; 48
     f3a:	8b 83       	std	Y+3, r24	; 0x03
val1-=val2*600;
     f3c:	a8 e5       	ldi	r26, 0x58	; 88
     f3e:	b2 e0       	ldi	r27, 0x02	; 2
     f40:	0e 94 58 1a 	call	0x34b0	; 0x34b0 <__muluhisi3>
     f44:	a7 01       	movw	r20, r14
     f46:	96 01       	movw	r18, r12
     f48:	26 1b       	sub	r18, r22
     f4a:	37 0b       	sbc	r19, r23
     f4c:	48 0b       	sbc	r20, r24
     f4e:	59 0b       	sbc	r21, r25
     f50:	ca 01       	movw	r24, r20
     f52:	b9 01       	movw	r22, r18
val2=val1/60;
time_rest_bat.string_setp_time[4] = (uint8_t)val2|0x30;
     f54:	2c e3       	ldi	r18, 0x3C	; 60
     f56:	30 e0       	ldi	r19, 0x00	; 0
     f58:	40 e0       	ldi	r20, 0x00	; 0
     f5a:	50 e0       	ldi	r21, 0x00	; 0
     f5c:	0e 94 27 1a 	call	0x344e	; 0x344e <__udivmodsi4>
     f60:	20 63       	ori	r18, 0x30	; 48
     f62:	2c 83       	std	Y+4, r18	; 0x04
time_rest_bat.string_setp_time[5] = 0x3a;		// :
     f64:	0d 83       	std	Y+5, r16	; 0x05
time_rest_bat.string_setp_time[6] = 0x30;
     f66:	1e 83       	std	Y+6, r17	; 0x06
time_rest_bat.string_setp_time[7] = 0x30;
     f68:	1f 83       	std	Y+7, r17	; 0x07
time_rest_bat.string_setp_time[8] = 0;
     f6a:	18 86       	std	Y+8, r1	; 0x08

//-----------------------------------------------------------------------------------
wdt_reset ();
     f6c:	a8 95       	wdr
eeprom_is_ready 	( );
time_work_temperat.string_setp_time[8] = eeprom_read_byte(&ee_setp_work_temp_time_8);
//
time_work_temperat.setp_time_bin=36000*(time_work_temperat.string_setp_time[0]&0x0F)+3600*(time_work_temperat.string_setp_time[1]&0x0F)+600*(time_work_temperat.string_setp_time[3]&0x0F)+60*(time_work_temperat.string_setp_time[4]&0x0F)+10*(time_work_temperat.string_setp_time[6]&0x0F)+(time_work_temperat.string_setp_time[7]&0x0F);
*/
eeprom_is_ready 	( );
     f6e:	8c b3       	in	r24, 0x1c	; 28
//val1	
time_work_temperat.setp_time_bin =	eeprom_read_dword	(&ee_work_temperat_setp_time_bin_1);
     f70:	80 e1       	ldi	r24, 0x10	; 16
     f72:	90 e0       	ldi	r25, 0x00	; 0
     f74:	0e 94 40 1d 	call	0x3a80	; 0x3a80 <eeprom_read_dword>
     f78:	6b 01       	movw	r12, r22
     f7a:	7c 01       	movw	r14, r24
     f7c:	c0 e2       	ldi	r28, 0x20	; 32
     f7e:	d1 e0       	ldi	r29, 0x01	; 1
     f80:	69 87       	std	Y+9, r22	; 0x09
     f82:	7a 87       	std	Y+10, r23	; 0x0a
     f84:	8b 87       	std	Y+11, r24	; 0x0b
     f86:	9c 87       	std	Y+12, r25	; 0x0c
//eeprom_is_ready 	( );
//val2	=	eeprom_read_dword	(&ee_work_temperat_setp_time_bin_2);
//eeprom_is_ready 	( );
//val3	=	eeprom_read_dword	(&ee_work_temperat_setp_time_bin_3);

wdt_reset ();
     f88:	a8 95       	wdr

//time_work_temperat.setp_time_bin  =  majority(val1,val2,val3);

val1=time_work_temperat.setp_time_bin;
val2=val1/36000;
     f8a:	a3 01       	movw	r20, r6
     f8c:	92 01       	movw	r18, r4
     f8e:	0e 94 27 1a 	call	0x344e	; 0x344e <__udivmodsi4>
time_work_temperat.string_setp_time[0] = (uint8_t)val2|0x30;		//  
     f92:	82 2f       	mov	r24, r18
     f94:	80 63       	ori	r24, 0x30	; 48
     f96:	88 83       	st	Y, r24
val1-=val2*36000;
     f98:	a0 ea       	ldi	r26, 0xA0	; 160
     f9a:	bc e8       	ldi	r27, 0x8C	; 140
     f9c:	0e 94 58 1a 	call	0x34b0	; 0x34b0 <__muluhisi3>
     fa0:	c6 1a       	sub	r12, r22
     fa2:	d7 0a       	sbc	r13, r23
     fa4:	e8 0a       	sbc	r14, r24
     fa6:	f9 0a       	sbc	r15, r25
val2=val1/3600;
     fa8:	c7 01       	movw	r24, r14
     faa:	b6 01       	movw	r22, r12
     fac:	a5 01       	movw	r20, r10
     fae:	94 01       	movw	r18, r8
     fb0:	0e 94 27 1a 	call	0x344e	; 0x344e <__udivmodsi4>
time_work_temperat.string_setp_time[1] = (uint8_t)val2|0x30;
     fb4:	82 2f       	mov	r24, r18
     fb6:	80 63       	ori	r24, 0x30	; 48
     fb8:	89 83       	std	Y+1, r24	; 0x01
time_work_temperat.string_setp_time[2] = 0x3a;		// :
     fba:	0a 83       	std	Y+2, r16	; 0x02
val1-=val2*3600;
     fbc:	a0 e1       	ldi	r26, 0x10	; 16
     fbe:	be e0       	ldi	r27, 0x0E	; 14
     fc0:	0e 94 58 1a 	call	0x34b0	; 0x34b0 <__muluhisi3>
     fc4:	c6 1a       	sub	r12, r22
     fc6:	d7 0a       	sbc	r13, r23
     fc8:	e8 0a       	sbc	r14, r24
     fca:	f9 0a       	sbc	r15, r25
val2=val1/600;
     fcc:	c7 01       	movw	r24, r14
     fce:	b6 01       	movw	r22, r12
     fd0:	28 e5       	ldi	r18, 0x58	; 88
     fd2:	32 e0       	ldi	r19, 0x02	; 2
     fd4:	40 e0       	ldi	r20, 0x00	; 0
     fd6:	50 e0       	ldi	r21, 0x00	; 0
     fd8:	0e 94 27 1a 	call	0x344e	; 0x344e <__udivmodsi4>
time_work_temperat.string_setp_time[3] = (uint8_t)val2|0x30;
     fdc:	82 2f       	mov	r24, r18
     fde:	80 63       	ori	r24, 0x30	; 48
     fe0:	8b 83       	std	Y+3, r24	; 0x03
val1-=val2*600;
     fe2:	a8 e5       	ldi	r26, 0x58	; 88
     fe4:	b2 e0       	ldi	r27, 0x02	; 2
     fe6:	0e 94 58 1a 	call	0x34b0	; 0x34b0 <__muluhisi3>
     fea:	a7 01       	movw	r20, r14
     fec:	96 01       	movw	r18, r12
     fee:	26 1b       	sub	r18, r22
     ff0:	37 0b       	sbc	r19, r23
     ff2:	48 0b       	sbc	r20, r24
     ff4:	59 0b       	sbc	r21, r25
     ff6:	ca 01       	movw	r24, r20
     ff8:	b9 01       	movw	r22, r18
val2=val1/60;
time_work_temperat.string_setp_time[4] = (uint8_t)val2|0x30;
     ffa:	2c e3       	ldi	r18, 0x3C	; 60
     ffc:	30 e0       	ldi	r19, 0x00	; 0
     ffe:	40 e0       	ldi	r20, 0x00	; 0
    1000:	50 e0       	ldi	r21, 0x00	; 0
    1002:	0e 94 27 1a 	call	0x344e	; 0x344e <__udivmodsi4>
    1006:	20 63       	ori	r18, 0x30	; 48
    1008:	2c 83       	std	Y+4, r18	; 0x04
time_work_temperat.string_setp_time[5] = 0x3a;		// :
    100a:	0d 83       	std	Y+5, r16	; 0x05
time_work_temperat.string_setp_time[6] = 0x30;
    100c:	1e 83       	std	Y+6, r17	; 0x06
time_work_temperat.string_setp_time[7] = 0x30;
    100e:	1f 83       	std	Y+7, r17	; 0x07
time_work_temperat.string_setp_time[8] = 0;
    1010:	18 86       	std	Y+8, r1	; 0x08

//------------------------------------------------------------------------------------
wdt_reset ();
    1012:	a8 95       	wdr
eeprom_is_ready 	( );
time_rest_temperat.string_setp_time[8] = eeprom_read_byte(&ee_setp_rest_temp_time_8);
//
time_rest_temperat.setp_time_bin=36000*(time_rest_temperat.string_setp_time[0]&0x0F)+3600*(time_rest_temperat.string_setp_time[1]&0x0F)+600*(time_rest_temperat.string_setp_time[3]&0x0F)+60*(time_rest_temperat.string_setp_time[4]&0x0F)+10*(time_rest_temperat.string_setp_time[6]&0x0F)+(time_rest_temperat.string_setp_time[7]&0x0F);
*/
eeprom_is_ready 	( );
    1014:	8c b3       	in	r24, 0x1c	; 28
//val1	
time_rest_temperat.setp_time_bin =	eeprom_read_dword	(&ee_rest_temperat_setp_time_bin_1);
    1016:	8c e0       	ldi	r24, 0x0C	; 12
    1018:	90 e0       	ldi	r25, 0x00	; 0
    101a:	0e 94 40 1d 	call	0x3a80	; 0x3a80 <eeprom_read_dword>
    101e:	6b 01       	movw	r12, r22
    1020:	7c 01       	movw	r14, r24
    1022:	c6 e9       	ldi	r28, 0x96	; 150
    1024:	d1 e0       	ldi	r29, 0x01	; 1
    1026:	69 87       	std	Y+9, r22	; 0x09
    1028:	7a 87       	std	Y+10, r23	; 0x0a
    102a:	8b 87       	std	Y+11, r24	; 0x0b
    102c:	9c 87       	std	Y+12, r25	; 0x0c
//eeprom_is_ready 	( );
//val2	=	eeprom_read_dword	(&ee_rest_temperat_setp_time_bin_2);
//eeprom_is_ready 	( );
//val3	=	eeprom_read_dword	(&ee_rest_temperat_setp_time_bin_3);

wdt_reset ();
    102e:	a8 95       	wdr

//time_rest_temperat.setp_time_bin  =  majority(val1,val2,val3);

val1=time_rest_temperat.setp_time_bin;
val2=val1/36000;
    1030:	a3 01       	movw	r20, r6
    1032:	92 01       	movw	r18, r4
    1034:	0e 94 27 1a 	call	0x344e	; 0x344e <__udivmodsi4>
time_rest_temperat.string_setp_time[0] = (uint8_t)val2|0x30;		//  
    1038:	82 2f       	mov	r24, r18
    103a:	80 63       	ori	r24, 0x30	; 48
    103c:	88 83       	st	Y, r24
val1-=val2*36000;
    103e:	a0 ea       	ldi	r26, 0xA0	; 160
    1040:	bc e8       	ldi	r27, 0x8C	; 140
    1042:	0e 94 58 1a 	call	0x34b0	; 0x34b0 <__muluhisi3>
    1046:	26 01       	movw	r4, r12
    1048:	37 01       	movw	r6, r14
    104a:	46 1a       	sub	r4, r22
    104c:	57 0a       	sbc	r5, r23
    104e:	68 0a       	sbc	r6, r24
    1050:	79 0a       	sbc	r7, r25
val2=val1/3600;
    1052:	c3 01       	movw	r24, r6
    1054:	b2 01       	movw	r22, r4
    1056:	a5 01       	movw	r20, r10
    1058:	94 01       	movw	r18, r8
    105a:	0e 94 27 1a 	call	0x344e	; 0x344e <__udivmodsi4>
time_rest_temperat.string_setp_time[1] = (uint8_t)val2|0x30;
    105e:	82 2f       	mov	r24, r18
    1060:	80 63       	ori	r24, 0x30	; 48
    1062:	89 83       	std	Y+1, r24	; 0x01
time_rest_temperat.string_setp_time[2] = 0x3a;		// :
    1064:	0a 83       	std	Y+2, r16	; 0x02
val1-=val2*3600;
    1066:	a0 e1       	ldi	r26, 0x10	; 16
    1068:	be e0       	ldi	r27, 0x0E	; 14
    106a:	0e 94 58 1a 	call	0x34b0	; 0x34b0 <__muluhisi3>
    106e:	46 1a       	sub	r4, r22
    1070:	57 0a       	sbc	r5, r23
    1072:	68 0a       	sbc	r6, r24
    1074:	79 0a       	sbc	r7, r25
val2=val1/600;
    1076:	c3 01       	movw	r24, r6
    1078:	b2 01       	movw	r22, r4
    107a:	28 e5       	ldi	r18, 0x58	; 88
    107c:	32 e0       	ldi	r19, 0x02	; 2
    107e:	40 e0       	ldi	r20, 0x00	; 0
    1080:	50 e0       	ldi	r21, 0x00	; 0
    1082:	0e 94 27 1a 	call	0x344e	; 0x344e <__udivmodsi4>
time_rest_temperat.string_setp_time[3] = (uint8_t)val2|0x30;
    1086:	82 2f       	mov	r24, r18
    1088:	80 63       	ori	r24, 0x30	; 48
    108a:	8b 83       	std	Y+3, r24	; 0x03
val1-=val2*600;
    108c:	a8 e5       	ldi	r26, 0x58	; 88
    108e:	b2 e0       	ldi	r27, 0x02	; 2
    1090:	0e 94 58 1a 	call	0x34b0	; 0x34b0 <__muluhisi3>
    1094:	a3 01       	movw	r20, r6
    1096:	92 01       	movw	r18, r4
    1098:	26 1b       	sub	r18, r22
    109a:	37 0b       	sbc	r19, r23
    109c:	48 0b       	sbc	r20, r24
    109e:	59 0b       	sbc	r21, r25
    10a0:	ca 01       	movw	r24, r20
    10a2:	b9 01       	movw	r22, r18
val2=val1/60;
time_rest_temperat.string_setp_time[4] = (uint8_t)val2|0x30;
    10a4:	2c e3       	ldi	r18, 0x3C	; 60
    10a6:	30 e0       	ldi	r19, 0x00	; 0
    10a8:	40 e0       	ldi	r20, 0x00	; 0
    10aa:	50 e0       	ldi	r21, 0x00	; 0
    10ac:	0e 94 27 1a 	call	0x344e	; 0x344e <__udivmodsi4>
    10b0:	20 63       	ori	r18, 0x30	; 48
    10b2:	2c 83       	std	Y+4, r18	; 0x04
time_rest_temperat.string_setp_time[5] = 0x3a;		// :
    10b4:	0d 83       	std	Y+5, r16	; 0x05
time_rest_temperat.string_setp_time[6] = 0x30;
    10b6:	1e 83       	std	Y+6, r17	; 0x06
time_rest_temperat.string_setp_time[7] = 0x30;
    10b8:	1f 83       	std	Y+7, r17	; 0x07
time_rest_temperat.string_setp_time[8] = 0;
    10ba:	18 86       	std	Y+8, r1	; 0x08

//-------------------------------------------------------------------------------------
wdt_reset ();
    10bc:	a8 95       	wdr
eeprom_is_ready 	( );

//0-99,9		max999->99.9v
battery_voltage_setp_value_low_bin=100*(battery_voltage_string_setp_value_low[0]&0x0F)+10*(battery_voltage_string_setp_value_low[1]&0x0F)+(battery_voltage_string_setp_value_low[3]&0x0F);
*/
eeprom_is_ready 	( );
    10be:	8c b3       	in	r24, 0x1c	; 28
//val1
battery_voltage_setp_value_low_bin	=	(uint32_t)	eeprom_read_word (&ee_setp_low_voltage_bat_bin_1);
    10c0:	8a e0       	ldi	r24, 0x0A	; 10
    10c2:	90 e0       	ldi	r25, 0x00	; 0
    10c4:	0e 94 46 1d 	call	0x3a8c	; 0x3a8c <eeprom_read_word>
    10c8:	90 93 b7 01 	sts	0x01B7, r25	; 0x8001b7 <battery_voltage_setp_value_low_bin+0x1>
    10cc:	80 93 b6 01 	sts	0x01B6, r24	; 0x8001b6 <battery_voltage_setp_value_low_bin>
//eeprom_is_ready 	( );
//val2	=	(uint32_t) eeprom_read_word	(&ee_setp_low_voltage_bat_bin_2);
//eeprom_is_ready 	( );
//val3	=	(uint32_t) eeprom_read_word	(&ee_setp_low_voltage_bat_bin_3);

wdt_reset ();
    10d0:	a8 95       	wdr

//battery_voltage_setp_value_low_bin  = (uint16_t) majority(val1,val2,val3);

val1=battery_voltage_setp_value_low_bin;
    10d2:	6c 01       	movw	r12, r24
    10d4:	e1 2c       	mov	r14, r1
    10d6:	f1 2c       	mov	r15, r1
val2=val1/100;
    10d8:	0f 2e       	mov	r0, r31
    10da:	f4 e6       	ldi	r31, 0x64	; 100
    10dc:	4f 2e       	mov	r4, r31
    10de:	51 2c       	mov	r5, r1
    10e0:	61 2c       	mov	r6, r1
    10e2:	71 2c       	mov	r7, r1
    10e4:	f0 2d       	mov	r31, r0
    10e6:	c7 01       	movw	r24, r14
    10e8:	b6 01       	movw	r22, r12
    10ea:	a3 01       	movw	r20, r6
    10ec:	92 01       	movw	r18, r4
    10ee:	0e 94 27 1a 	call	0x344e	; 0x344e <__udivmodsi4>
battery_voltage_string_setp_value_low[0] = (uint8_t)val2|0x30;
    10f2:	c1 eb       	ldi	r28, 0xB1	; 177
    10f4:	d1 e0       	ldi	r29, 0x01	; 1
    10f6:	82 2f       	mov	r24, r18
    10f8:	80 63       	ori	r24, 0x30	; 48
    10fa:	88 83       	st	Y, r24
val1-=val2*100;
    10fc:	a4 e6       	ldi	r26, 0x64	; 100
    10fe:	b0 e0       	ldi	r27, 0x00	; 0
    1100:	0e 94 58 1a 	call	0x34b0	; 0x34b0 <__muluhisi3>
    1104:	c6 1a       	sub	r12, r22
    1106:	d7 0a       	sbc	r13, r23
    1108:	e8 0a       	sbc	r14, r24
    110a:	f9 0a       	sbc	r15, r25
val2=val1/10;
    110c:	0f 2e       	mov	r0, r31
    110e:	fa e0       	ldi	r31, 0x0A	; 10
    1110:	8f 2e       	mov	r8, r31
    1112:	91 2c       	mov	r9, r1
    1114:	a1 2c       	mov	r10, r1
    1116:	b1 2c       	mov	r11, r1
    1118:	f0 2d       	mov	r31, r0
    111a:	c7 01       	movw	r24, r14
    111c:	b6 01       	movw	r22, r12
    111e:	a5 01       	movw	r20, r10
    1120:	94 01       	movw	r18, r8
    1122:	0e 94 27 1a 	call	0x344e	; 0x344e <__udivmodsi4>
battery_voltage_string_setp_value_low[1] = (uint8_t)val2|0x30;
    1126:	82 2f       	mov	r24, r18
    1128:	80 63       	ori	r24, 0x30	; 48
    112a:	89 83       	std	Y+1, r24	; 0x01
battery_voltage_string_setp_value_low[2] = 0x2e;
    112c:	1e e2       	ldi	r17, 0x2E	; 46
    112e:	1a 83       	std	Y+2, r17	; 0x02
val1-=val2*10;
battery_voltage_string_setp_value_low[3] = (uint8_t)val1|0x30;	
    1130:	82 2f       	mov	r24, r18
    1132:	93 2f       	mov	r25, r19
    1134:	a4 2f       	mov	r26, r20
    1136:	b5 2f       	mov	r27, r21
    1138:	88 0f       	add	r24, r24
    113a:	99 1f       	adc	r25, r25
    113c:	aa 1f       	adc	r26, r26
    113e:	bb 1f       	adc	r27, r27
    1140:	ac 01       	movw	r20, r24
    1142:	bd 01       	movw	r22, r26
    1144:	44 0f       	add	r20, r20
    1146:	55 1f       	adc	r21, r21
    1148:	66 1f       	adc	r22, r22
    114a:	77 1f       	adc	r23, r23
    114c:	44 0f       	add	r20, r20
    114e:	55 1f       	adc	r21, r21
    1150:	66 1f       	adc	r22, r22
    1152:	77 1f       	adc	r23, r23
    1154:	84 0f       	add	r24, r20
    1156:	95 1f       	adc	r25, r21
    1158:	a6 1f       	adc	r26, r22
    115a:	b7 1f       	adc	r27, r23
    115c:	a7 01       	movw	r20, r14
    115e:	96 01       	movw	r18, r12
    1160:	28 1b       	sub	r18, r24
    1162:	39 0b       	sbc	r19, r25
    1164:	4a 0b       	sbc	r20, r26
    1166:	5b 0b       	sbc	r21, r27
    1168:	da 01       	movw	r26, r20
    116a:	c9 01       	movw	r24, r18
    116c:	80 63       	ori	r24, 0x30	; 48
    116e:	8b 83       	std	Y+3, r24	; 0x03
battery_voltage_string_setp_value_low[4] = 0;
    1170:	1c 82       	std	Y+4, r1	; 0x04
temperature.string_setp_value_low[6] = eeprom_read_byte(&ee_setp_low_temp_6);		

//
temperature.setp_value_low_bin=100*(temperature.string_setp_value_low[0]&0x0F)+10*(temperature.string_setp_value_low[1]&0x0F)+(temperature.string_setp_value_low[3]&0x0F);	//##.# - ###   *10
*/
wdt_reset ();
    1172:	a8 95       	wdr

eeprom_is_ready 	( );
    1174:	8c b3       	in	r24, 0x1c	; 28
//val1
temperature.setp_value_low_bin	=	(uint32_t)	eeprom_read_word	(&ee_setp_low_temp_bin_1);
    1176:	88 e0       	ldi	r24, 0x08	; 8
    1178:	90 e0       	ldi	r25, 0x00	; 0
    117a:	0e 94 46 1d 	call	0x3a8c	; 0x3a8c <eeprom_read_word>
    117e:	cb e5       	ldi	r28, 0x5B	; 91
    1180:	d1 e0       	ldi	r29, 0x01	; 1
    1182:	9b 8b       	std	Y+19, r25	; 0x13
    1184:	8a 8b       	std	Y+18, r24	; 0x12
//eeprom_is_ready 	( );
//val2	=	(uint32_t) eeprom_read_word	(&ee_setp_low_temp_bin_2);
//eeprom_is_ready 	( );
//val3	=	(uint32_t) eeprom_read_word	(&ee_setp_low_temp_bin_3);

wdt_reset ();
    1186:	a8 95       	wdr

//temperature.setp_value_low_bin  = (uint16_t) majority(val1,val2,val3);

val1=temperature.setp_value_low_bin;
    1188:	6c 01       	movw	r12, r24
    118a:	e1 2c       	mov	r14, r1
    118c:	f1 2c       	mov	r15, r1
val2=val1/100;
    118e:	c7 01       	movw	r24, r14
    1190:	b6 01       	movw	r22, r12
    1192:	a3 01       	movw	r20, r6
    1194:	92 01       	movw	r18, r4
    1196:	0e 94 27 1a 	call	0x344e	; 0x344e <__udivmodsi4>
temperature.string_setp_value_low[0] = (uint8_t)val2|0x30;
    119a:	82 2f       	mov	r24, r18
    119c:	80 63       	ori	r24, 0x30	; 48
    119e:	8b 87       	std	Y+11, r24	; 0x0b
val1-=val2*100;
    11a0:	a4 e6       	ldi	r26, 0x64	; 100
    11a2:	b0 e0       	ldi	r27, 0x00	; 0
    11a4:	0e 94 58 1a 	call	0x34b0	; 0x34b0 <__muluhisi3>
    11a8:	c6 1a       	sub	r12, r22
    11aa:	d7 0a       	sbc	r13, r23
    11ac:	e8 0a       	sbc	r14, r24
    11ae:	f9 0a       	sbc	r15, r25
val2=val1/10;
    11b0:	c7 01       	movw	r24, r14
    11b2:	b6 01       	movw	r22, r12
    11b4:	a5 01       	movw	r20, r10
    11b6:	94 01       	movw	r18, r8
    11b8:	0e 94 27 1a 	call	0x344e	; 0x344e <__udivmodsi4>
temperature.string_setp_value_low[1] = (uint8_t)val2|0x30;
    11bc:	82 2f       	mov	r24, r18
    11be:	80 63       	ori	r24, 0x30	; 48
    11c0:	8c 87       	std	Y+12, r24	; 0x0c
temperature.string_setp_value_low[2] = 0x2e;
    11c2:	1d 87       	std	Y+13, r17	; 0x0d
val1-=val2*10;
temperature.string_setp_value_low[3] = (uint8_t)val1|0x30;
    11c4:	82 2f       	mov	r24, r18
    11c6:	93 2f       	mov	r25, r19
    11c8:	a4 2f       	mov	r26, r20
    11ca:	b5 2f       	mov	r27, r21
    11cc:	88 0f       	add	r24, r24
    11ce:	99 1f       	adc	r25, r25
    11d0:	aa 1f       	adc	r26, r26
    11d2:	bb 1f       	adc	r27, r27
    11d4:	ac 01       	movw	r20, r24
    11d6:	bd 01       	movw	r22, r26
    11d8:	44 0f       	add	r20, r20
    11da:	55 1f       	adc	r21, r21
    11dc:	66 1f       	adc	r22, r22
    11de:	77 1f       	adc	r23, r23
    11e0:	44 0f       	add	r20, r20
    11e2:	55 1f       	adc	r21, r21
    11e4:	66 1f       	adc	r22, r22
    11e6:	77 1f       	adc	r23, r23
    11e8:	84 0f       	add	r24, r20
    11ea:	95 1f       	adc	r25, r21
    11ec:	a6 1f       	adc	r26, r22
    11ee:	b7 1f       	adc	r27, r23
    11f0:	a7 01       	movw	r20, r14
    11f2:	96 01       	movw	r18, r12
    11f4:	28 1b       	sub	r18, r24
    11f6:	39 0b       	sbc	r19, r25
    11f8:	4a 0b       	sbc	r20, r26
    11fa:	5b 0b       	sbc	r21, r27
    11fc:	da 01       	movw	r26, r20
    11fe:	c9 01       	movw	r24, r18
    1200:	80 63       	ori	r24, 0x30	; 48
    1202:	8e 87       	std	Y+14, r24	; 0x0e
temperature.string_setp_value_low[4] = 0xdf;
    1204:	0f 2e       	mov	r0, r31
    1206:	ff ed       	ldi	r31, 0xDF	; 223
    1208:	3f 2e       	mov	r3, r31
    120a:	f0 2d       	mov	r31, r0
    120c:	3f 86       	std	Y+15, r3	; 0x0f
temperature.string_setp_value_low[5] = 0x43;
    120e:	03 e4       	ldi	r16, 0x43	; 67
    1210:	08 8b       	std	Y+16, r16	; 0x10
temperature.string_setp_value_low[6] = 0;
    1212:	19 8a       	std	Y+17, r1	; 0x11

//
wdt_reset ();
    1214:	a8 95       	wdr
temperature.string_setp_value_hight[6] = eeprom_read_byte(&ee_setp_hight_temp_6);		
//
temperature.setp_value_hight_bin=100*(temperature.string_setp_value_hight[0]&0x0F)+10*(temperature.string_setp_value_hight[1]&0x0F)+(temperature.string_setp_value_hight[3]&0x0F);	//##.# - ###   *10;
eeprom_is_ready 	( );
*/
eeprom_is_ready 	( );
    1216:	8c b3       	in	r24, 0x1c	; 28
//val1
temperature.setp_value_hight_bin	=	(uint32_t)	eeprom_read_word	(&ee_setp_hight_temp_bin_1);
    1218:	86 e0       	ldi	r24, 0x06	; 6
    121a:	90 e0       	ldi	r25, 0x00	; 0
    121c:	0e 94 46 1d 	call	0x3a8c	; 0x3a8c <eeprom_read_word>
    1220:	9a 87       	std	Y+10, r25	; 0x0a
    1222:	89 87       	std	Y+9, r24	; 0x09
//eeprom_is_ready 	( );
//val2	=	(uint32_t) eeprom_read_word	(&ee_setp_hight_temp_bin_2);
//eeprom_is_ready 	( );
//val3	=	(uint32_t) eeprom_read_word	(&ee_setp_hight_temp_bin_3);

wdt_reset ();
    1224:	a8 95       	wdr

//temperature.setp_value_hight_bin  = (uint16_t) majority(val1,val2,val3);

val1=temperature.setp_value_hight_bin;
    1226:	6c 01       	movw	r12, r24
    1228:	e1 2c       	mov	r14, r1
    122a:	f1 2c       	mov	r15, r1
val2=val1/100;
    122c:	c7 01       	movw	r24, r14
    122e:	b6 01       	movw	r22, r12
    1230:	a3 01       	movw	r20, r6
    1232:	92 01       	movw	r18, r4
    1234:	0e 94 27 1a 	call	0x344e	; 0x344e <__udivmodsi4>
temperature.string_setp_value_hight[0] = (uint8_t)val2|0x30;
    1238:	82 2f       	mov	r24, r18
    123a:	80 63       	ori	r24, 0x30	; 48
    123c:	8a 83       	std	Y+2, r24	; 0x02
val1-=val2*100;
    123e:	a4 e6       	ldi	r26, 0x64	; 100
    1240:	b0 e0       	ldi	r27, 0x00	; 0
    1242:	0e 94 58 1a 	call	0x34b0	; 0x34b0 <__muluhisi3>
    1246:	c6 1a       	sub	r12, r22
    1248:	d7 0a       	sbc	r13, r23
    124a:	e8 0a       	sbc	r14, r24
    124c:	f9 0a       	sbc	r15, r25
val2=val1/10;
    124e:	c7 01       	movw	r24, r14
    1250:	b6 01       	movw	r22, r12
    1252:	a5 01       	movw	r20, r10
    1254:	94 01       	movw	r18, r8
    1256:	0e 94 27 1a 	call	0x344e	; 0x344e <__udivmodsi4>
temperature.string_setp_value_hight[1] = (uint8_t)val2|0x30;
    125a:	82 2f       	mov	r24, r18
    125c:	80 63       	ori	r24, 0x30	; 48
    125e:	8b 83       	std	Y+3, r24	; 0x03
temperature.string_setp_value_hight[2] = 0x2e;
    1260:	1c 83       	std	Y+4, r17	; 0x04
val1-=val2*10;
temperature.string_setp_value_hight[3] = (uint8_t)val1|0x30;
    1262:	82 2f       	mov	r24, r18
    1264:	93 2f       	mov	r25, r19
    1266:	a4 2f       	mov	r26, r20
    1268:	b5 2f       	mov	r27, r21
    126a:	88 0f       	add	r24, r24
    126c:	99 1f       	adc	r25, r25
    126e:	aa 1f       	adc	r26, r26
    1270:	bb 1f       	adc	r27, r27
    1272:	ac 01       	movw	r20, r24
    1274:	bd 01       	movw	r22, r26
    1276:	44 0f       	add	r20, r20
    1278:	55 1f       	adc	r21, r21
    127a:	66 1f       	adc	r22, r22
    127c:	77 1f       	adc	r23, r23
    127e:	44 0f       	add	r20, r20
    1280:	55 1f       	adc	r21, r21
    1282:	66 1f       	adc	r22, r22
    1284:	77 1f       	adc	r23, r23
    1286:	84 0f       	add	r24, r20
    1288:	95 1f       	adc	r25, r21
    128a:	a6 1f       	adc	r26, r22
    128c:	b7 1f       	adc	r27, r23
    128e:	a7 01       	movw	r20, r14
    1290:	96 01       	movw	r18, r12
    1292:	28 1b       	sub	r18, r24
    1294:	39 0b       	sbc	r19, r25
    1296:	4a 0b       	sbc	r20, r26
    1298:	5b 0b       	sbc	r21, r27
    129a:	da 01       	movw	r26, r20
    129c:	c9 01       	movw	r24, r18
    129e:	80 63       	ori	r24, 0x30	; 48
    12a0:	8d 83       	std	Y+5, r24	; 0x05
temperature.string_setp_value_hight[4] = 0xdf;
    12a2:	3e 82       	std	Y+6, r3	; 0x06
temperature.string_setp_value_hight[5] = 0x43;
    12a4:	0f 83       	std	Y+7, r16	; 0x07
temperature.string_setp_value_hight[6] = 0;
    12a6:	18 86       	std	Y+8, r1	; 0x08
//--------------------------------------------------------------------------------
wdt_reset ();
    12a8:	a8 95       	wdr
eeprom_is_ready 	( );
    12aa:	8c b3       	in	r24, 0x1c	; 28
//val1
battery_voltage_coefficient	=	(uint32_t)	eeprom_read_word	(&coefficient1);
    12ac:	84 e0       	ldi	r24, 0x04	; 4
    12ae:	90 e0       	ldi	r25, 0x00	; 0
    12b0:	0e 94 46 1d 	call	0x3a8c	; 0x3a8c <eeprom_read_word>
    12b4:	90 93 3c 01 	sts	0x013C, r25	; 0x80013c <battery_voltage_coefficient+0x1>
    12b8:	80 93 3b 01 	sts	0x013B, r24	; 0x80013b <battery_voltage_coefficient>
//eeprom_is_ready 	( );
//val2	=	(uint32_t) eeprom_read_word	(&coefficient2);
//eeprom_is_ready 	( );
//val3	=	(uint32_t) eeprom_read_word	(&coefficient3);

wdt_reset ();
    12bc:	a8 95       	wdr

//battery_voltage_coefficient  = (uint16_t) majority(val1,val2,val3);

if(battery_voltage_coefficient>2000){
    12be:	81 3d       	cpi	r24, 0xD1	; 209
    12c0:	97 40       	sbci	r25, 0x07	; 7
    12c2:	80 f0       	brcs	.+32     	; 0x12e4 <read_eeprom_setp+0x50a>
	eeprom_is_ready 	( );
    12c4:	8c b3       	in	r24, 0x1c	; 28
	eeprom_write_word(&coefficient1,2000);
    12c6:	60 ed       	ldi	r22, 0xD0	; 208
    12c8:	77 e0       	ldi	r23, 0x07	; 7
    12ca:	84 e0       	ldi	r24, 0x04	; 4
    12cc:	90 e0       	ldi	r25, 0x00	; 0
    12ce:	0e 94 61 1d 	call	0x3ac2	; 0x3ac2 <eeprom_write_word>
//	eeprom_is_ready 	( );
//	eeprom_write_word(&coefficient2,2000);
//	eeprom_is_ready 	( );
//	eeprom_write_word(&coefficient3,2000);
	eeprom_is_ready 	( );
    12d2:	8c b3       	in	r24, 0x1c	; 28
	battery_voltage_coefficient=eeprom_read_word(&coefficient1);
    12d4:	84 e0       	ldi	r24, 0x04	; 4
    12d6:	90 e0       	ldi	r25, 0x00	; 0
    12d8:	0e 94 46 1d 	call	0x3a8c	; 0x3a8c <eeprom_read_word>
    12dc:	90 93 3c 01 	sts	0x013C, r25	; 0x80013c <battery_voltage_coefficient+0x1>
    12e0:	80 93 3b 01 	sts	0x013B, r24	; 0x80013b <battery_voltage_coefficient>
}
eeprom_is_ready 	( );
    12e4:	8c b3       	in	r24, 0x1c	; 28
//------------------------------------------------------------------------------------
wdt_reset ();
    12e6:	a8 95       	wdr
eeprom_is_ready 	( );
    12e8:	8c b3       	in	r24, 0x1c	; 28
//val1
type_generator	=	eeprom_read_byte	(&ee_type_generator1);
    12ea:	83 e0       	ldi	r24, 0x03	; 3
    12ec:	90 e0       	ldi	r25, 0x00	; 0
    12ee:	0e 94 38 1d 	call	0x3a70	; 0x3a70 <eeprom_read_byte>
    12f2:	80 93 95 01 	sts	0x0195, r24	; 0x800195 <type_generator>
//eeprom_is_ready 	( );
//val2	=	(uint32_t) eeprom_read_byte	(&ee_type_generator2);
//eeprom_is_ready 	( );
//val3	=	(uint32_t) eeprom_read_byte	(&ee_type_generator3);
enable_battery_voltage = eeprom_read_byte	(&ee_enable_battery_voltage);
    12f6:	82 e0       	ldi	r24, 0x02	; 2
    12f8:	90 e0       	ldi	r25, 0x00	; 0
    12fa:	0e 94 38 1d 	call	0x3a70	; 0x3a70 <eeprom_read_byte>
    12fe:	80 93 3d 01 	sts	0x013D, r24	; 0x80013d <enable_battery_voltage>
temperature.enable_low = eeprom_read_byte	(&ee_enable_temperature_low);
    1302:	81 e0       	ldi	r24, 0x01	; 1
    1304:	90 e0       	ldi	r25, 0x00	; 0
    1306:	0e 94 38 1d 	call	0x3a70	; 0x3a70 <eeprom_read_byte>
    130a:	cb e5       	ldi	r28, 0x5B	; 91
    130c:	d1 e0       	ldi	r29, 0x01	; 1
    130e:	88 83       	st	Y, r24
temperature.enable_hight = eeprom_read_byte	(&ee_enable_temperature_hight);
    1310:	80 e0       	ldi	r24, 0x00	; 0
    1312:	90 e0       	ldi	r25, 0x00	; 0
    1314:	0e 94 38 1d 	call	0x3a70	; 0x3a70 <eeprom_read_byte>
    1318:	89 83       	std	Y+1, r24	; 0x01
wdt_reset ();
    131a:	a8 95       	wdr

//type_generator  = (uint8_t) majority(val1,val2,val3);
eeprom_is_ready 	( );
    131c:	8c b3       	in	r24, 0x1c	; 28


}
    131e:	df 91       	pop	r29
    1320:	cf 91       	pop	r28
    1322:	1f 91       	pop	r17
    1324:	0f 91       	pop	r16
    1326:	ff 90       	pop	r15
    1328:	ef 90       	pop	r14
    132a:	df 90       	pop	r13
    132c:	cf 90       	pop	r12
    132e:	bf 90       	pop	r11
    1330:	af 90       	pop	r10
    1332:	9f 90       	pop	r9
    1334:	8f 90       	pop	r8
    1336:	7f 90       	pop	r7
    1338:	6f 90       	pop	r6
    133a:	5f 90       	pop	r5
    133c:	4f 90       	pop	r4
    133e:	3f 90       	pop	r3
    1340:	08 95       	ret

00001342 <control_key_time>:
//return 1 if cursor output left
//return 2 if cursor output right
//return 3 update LCD

static uint8_t control_key_time(uint8_t* array_str){
if(key== _right){
    1342:	20 91 18 01 	lds	r18, 0x0118	; 0x800118 <key>
    1346:	27 31       	cpi	r18, 0x17	; 23
    1348:	29 f5       	brne	.+74     	; 0x1394 <control_key_time+0x52>
	index_cursor++;
    134a:	80 91 1a 01 	lds	r24, 0x011A	; 0x80011a <index_cursor>
    134e:	8f 5f       	subi	r24, 0xFF	; 255
    1350:	80 93 1a 01 	sts	0x011A, r24	; 0x80011a <index_cursor>
	if(index_cursor>=11){
    1354:	80 91 1a 01 	lds	r24, 0x011A	; 0x80011a <index_cursor>
    1358:	8b 30       	cpi	r24, 0x0B	; 11
    135a:	20 f0       	brcs	.+8      	; 0x1364 <control_key_time+0x22>
		//clr_blink();
		clr_key();
    135c:	0e 94 69 03 	call	0x6d2	; 0x6d2 <clr_key>
		return 2;
    1360:	82 e0       	ldi	r24, 0x02	; 2
    1362:	08 95       	ret
	}
	else
	{
		if(index_cursor==2){
    1364:	80 91 1a 01 	lds	r24, 0x011A	; 0x80011a <index_cursor>
    1368:	82 30       	cpi	r24, 0x02	; 2
    136a:	29 f4       	brne	.+10     	; 0x1376 <control_key_time+0x34>
			index_cursor++;
    136c:	80 91 1a 01 	lds	r24, 0x011A	; 0x80011a <index_cursor>
    1370:	8f 5f       	subi	r24, 0xFF	; 255
    1372:	80 93 1a 01 	sts	0x011A, r24	; 0x80011a <index_cursor>
		}
		if (index_cursor>=5){
    1376:	80 91 1a 01 	lds	r24, 0x011A	; 0x80011a <index_cursor>
    137a:	85 30       	cpi	r24, 0x05	; 5
    137c:	18 f0       	brcs	.+6      	; 0x1384 <control_key_time+0x42>
			index_cursor=10;
    137e:	8a e0       	ldi	r24, 0x0A	; 10
    1380:	80 93 1a 01 	sts	0x011A, r24	; 0x80011a <index_cursor>
			}
		//clr_blink();
		blinc_cursor(index_cursor);
    1384:	80 91 1a 01 	lds	r24, 0x011A	; 0x80011a <index_cursor>
    1388:	0e 94 7d 04 	call	0x8fa	; 0x8fa <blinc_cursor>
		clr_key();
    138c:	0e 94 69 03 	call	0x6d2	; 0x6d2 <clr_key>
		//clr_blink();
		blinc_cursor(index_cursor);
		clr_key();
		}
	}
	return 0;
    1390:	80 e0       	ldi	r24, 0x00	; 0
    1392:	08 95       	ret
		//clr_blink();
		blinc_cursor(index_cursor);
		clr_key();
	}
}else
if(key== _up){
    1394:	20 91 18 01 	lds	r18, 0x0118	; 0x800118 <key>
    1398:	2f 30       	cpi	r18, 0x0F	; 15
    139a:	d1 f5       	brne	.+116    	; 0x1410 <control_key_time+0xce>
	array_str[index_cursor]++;
    139c:	20 91 1a 01 	lds	r18, 0x011A	; 0x80011a <index_cursor>
    13a0:	fc 01       	movw	r30, r24
    13a2:	e2 0f       	add	r30, r18
    13a4:	f1 1d       	adc	r31, r1
    13a6:	20 81       	ld	r18, Z
    13a8:	2f 5f       	subi	r18, 0xFF	; 255
    13aa:	20 83       	st	Z, r18
	if(index_cursor==3){
    13ac:	20 91 1a 01 	lds	r18, 0x011A	; 0x80011a <index_cursor>
    13b0:	23 30       	cpi	r18, 0x03	; 3
    13b2:	79 f4       	brne	.+30     	; 0x13d2 <control_key_time+0x90>
		if (array_str[index_cursor]>=0x36)
    13b4:	20 91 1a 01 	lds	r18, 0x011A	; 0x80011a <index_cursor>
    13b8:	fc 01       	movw	r30, r24
    13ba:	e2 0f       	add	r30, r18
    13bc:	f1 1d       	adc	r31, r1
    13be:	20 81       	ld	r18, Z
    13c0:	26 33       	cpi	r18, 0x36	; 54
    13c2:	38 f0       	brcs	.+14     	; 0x13d2 <control_key_time+0x90>
		{
			array_str[index_cursor]=0x35;
    13c4:	20 91 1a 01 	lds	r18, 0x011A	; 0x80011a <index_cursor>
    13c8:	fc 01       	movw	r30, r24
    13ca:	e2 0f       	add	r30, r18
    13cc:	f1 1d       	adc	r31, r1
    13ce:	25 e3       	ldi	r18, 0x35	; 53
    13d0:	20 83       	st	Z, r18
		}
	}
	if((index_cursor==0)||(index_cursor==1)||(index_cursor==4)){
    13d2:	20 91 1a 01 	lds	r18, 0x011A	; 0x80011a <index_cursor>
    13d6:	22 23       	and	r18, r18
    13d8:	41 f0       	breq	.+16     	; 0x13ea <control_key_time+0xa8>
    13da:	20 91 1a 01 	lds	r18, 0x011A	; 0x80011a <index_cursor>
    13de:	21 30       	cpi	r18, 0x01	; 1
    13e0:	21 f0       	breq	.+8      	; 0x13ea <control_key_time+0xa8>
    13e2:	20 91 1a 01 	lds	r18, 0x011A	; 0x80011a <index_cursor>
    13e6:	24 30       	cpi	r18, 0x04	; 4
    13e8:	79 f4       	brne	.+30     	; 0x1408 <control_key_time+0xc6>
		if (array_str[index_cursor]>=0x3a)
    13ea:	20 91 1a 01 	lds	r18, 0x011A	; 0x80011a <index_cursor>
    13ee:	fc 01       	movw	r30, r24
    13f0:	e2 0f       	add	r30, r18
    13f2:	f1 1d       	adc	r31, r1
    13f4:	20 81       	ld	r18, Z
    13f6:	2a 33       	cpi	r18, 0x3A	; 58
    13f8:	38 f0       	brcs	.+14     	; 0x1408 <control_key_time+0xc6>
		{
			array_str[index_cursor]=0x39;
    13fa:	20 91 1a 01 	lds	r18, 0x011A	; 0x80011a <index_cursor>
    13fe:	fc 01       	movw	r30, r24
    1400:	e2 0f       	add	r30, r18
    1402:	f1 1d       	adc	r31, r1
    1404:	29 e3       	ldi	r18, 0x39	; 57
    1406:	20 83       	st	Z, r18
		}
	}
	clr_key();
    1408:	0e 94 69 03 	call	0x6d2	; 0x6d2 <clr_key>
	return 3;
    140c:	83 e0       	ldi	r24, 0x03	; 3
    140e:	08 95       	ret
}else
if(key==_down){
    1410:	20 91 18 01 	lds	r18, 0x0118	; 0x800118 <key>
    1414:	2d 31       	cpi	r18, 0x1D	; 29
    1416:	d9 f5       	brne	.+118    	; 0x148e <control_key_time+0x14c>
	if((index_cursor==0)||(index_cursor==1)||(index_cursor==3)||(index_cursor==4)){
    1418:	20 91 1a 01 	lds	r18, 0x011A	; 0x80011a <index_cursor>
    141c:	22 23       	and	r18, r18
    141e:	61 f0       	breq	.+24     	; 0x1438 <control_key_time+0xf6>
    1420:	20 91 1a 01 	lds	r18, 0x011A	; 0x80011a <index_cursor>
    1424:	21 30       	cpi	r18, 0x01	; 1
    1426:	41 f0       	breq	.+16     	; 0x1438 <control_key_time+0xf6>
    1428:	20 91 1a 01 	lds	r18, 0x011A	; 0x80011a <index_cursor>
    142c:	23 30       	cpi	r18, 0x03	; 3
    142e:	21 f0       	breq	.+8      	; 0x1438 <control_key_time+0xf6>
    1430:	20 91 1a 01 	lds	r18, 0x011A	; 0x80011a <index_cursor>
    1434:	24 30       	cpi	r18, 0x04	; 4
    1436:	81 f4       	brne	.+32     	; 0x1458 <control_key_time+0x116>
		if(array_str[index_cursor]==0x30){
    1438:	20 91 1a 01 	lds	r18, 0x011A	; 0x80011a <index_cursor>
    143c:	fc 01       	movw	r30, r24
    143e:	e2 0f       	add	r30, r18
    1440:	f1 1d       	adc	r31, r1
    1442:	20 81       	ld	r18, Z
    1444:	20 33       	cpi	r18, 0x30	; 48
    1446:	41 f0       	breq	.+16     	; 0x1458 <control_key_time+0x116>
			;
			}else{
			array_str[index_cursor]--;
    1448:	20 91 1a 01 	lds	r18, 0x011A	; 0x80011a <index_cursor>
    144c:	fc 01       	movw	r30, r24
    144e:	e2 0f       	add	r30, r18
    1450:	f1 1d       	adc	r31, r1
    1452:	80 81       	ld	r24, Z
    1454:	81 50       	subi	r24, 0x01	; 1
    1456:	80 83       	st	Z, r24
		}
	}
	if(index_cursor==10){
    1458:	80 91 1a 01 	lds	r24, 0x011A	; 0x80011a <index_cursor>
    145c:	8a 30       	cpi	r24, 0x0A	; 10
    145e:	99 f4       	brne	.+38     	; 0x1486 <control_key_time+0x144>
		store_setp();
    1460:	0e 94 d9 04 	call	0x9b2	; 0x9b2 <store_setp>
		read_eeprom_setp();
    1464:	0e 94 ed 06 	call	0xdda	; 0xdda <read_eeprom_setp>
		clr_blink();
    1468:	0e 94 d2 04 	call	0x9a4	; 0x9a4 <clr_blink>
		build_windou_stored();
    146c:	0e 94 8e 03 	call	0x71c	; 0x71c <build_windou_stored>
		wdt_reset ();
    1470:	a8 95       	wdr
    1472:	2f ef       	ldi	r18, 0xFF	; 255
    1474:	83 ed       	ldi	r24, 0xD3	; 211
    1476:	90 e3       	ldi	r25, 0x30	; 48
    1478:	21 50       	subi	r18, 0x01	; 1
    147a:	80 40       	sbci	r24, 0x00	; 0
    147c:	90 40       	sbci	r25, 0x00	; 0
    147e:	e1 f7       	brne	.-8      	; 0x1478 <control_key_time+0x136>
    1480:	00 c0       	rjmp	.+0      	; 0x1482 <control_key_time+0x140>
    1482:	00 00       	nop
		_delay_ms(1000);
		wdt_reset ();
    1484:	a8 95       	wdr
		//blinc_cursor(index_cursor);
	}
	clr_key();
    1486:	0e 94 69 03 	call	0x6d2	; 0x6d2 <clr_key>
	return 3;
    148a:	83 e0       	ldi	r24, 0x03	; 3
    148c:	08 95       	ret
}else
if(key==_left){
    148e:	80 91 18 01 	lds	r24, 0x0118	; 0x800118 <key>
    1492:	8b 31       	cpi	r24, 0x1B	; 27
    1494:	29 f5       	brne	.+74     	; 0x14e0 <control_key_time+0x19e>
	if(index_cursor==0){
    1496:	80 91 1a 01 	lds	r24, 0x011A	; 0x80011a <index_cursor>
    149a:	81 11       	cpse	r24, r1
    149c:	04 c0       	rjmp	.+8      	; 0x14a6 <control_key_time+0x164>
		//clr_blink();
		clr_key();
    149e:	0e 94 69 03 	call	0x6d2	; 0x6d2 <clr_key>
		return 1;
    14a2:	81 e0       	ldi	r24, 0x01	; 1
    14a4:	08 95       	ret
	}
	else
		{
		if(index_cursor==10){
    14a6:	80 91 1a 01 	lds	r24, 0x011A	; 0x80011a <index_cursor>
    14aa:	8a 30       	cpi	r24, 0x0A	; 10
    14ac:	21 f4       	brne	.+8      	; 0x14b6 <control_key_time+0x174>
			index_cursor=4;
    14ae:	84 e0       	ldi	r24, 0x04	; 4
    14b0:	80 93 1a 01 	sts	0x011A, r24	; 0x80011a <index_cursor>
    14b4:	0d c0       	rjmp	.+26     	; 0x14d0 <control_key_time+0x18e>
		}else	if(index_cursor==3){
    14b6:	80 91 1a 01 	lds	r24, 0x011A	; 0x80011a <index_cursor>
    14ba:	83 30       	cpi	r24, 0x03	; 3
    14bc:	21 f4       	brne	.+8      	; 0x14c6 <control_key_time+0x184>
									index_cursor=1;
    14be:	81 e0       	ldi	r24, 0x01	; 1
    14c0:	80 93 1a 01 	sts	0x011A, r24	; 0x80011a <index_cursor>
    14c4:	05 c0       	rjmp	.+10     	; 0x14d0 <control_key_time+0x18e>
									}else{index_cursor--;}
    14c6:	80 91 1a 01 	lds	r24, 0x011A	; 0x80011a <index_cursor>
    14ca:	81 50       	subi	r24, 0x01	; 1
    14cc:	80 93 1a 01 	sts	0x011A, r24	; 0x80011a <index_cursor>
		//clr_blink();
		blinc_cursor(index_cursor);
    14d0:	80 91 1a 01 	lds	r24, 0x011A	; 0x80011a <index_cursor>
    14d4:	0e 94 7d 04 	call	0x8fa	; 0x8fa <blinc_cursor>
		clr_key();
    14d8:	0e 94 69 03 	call	0x6d2	; 0x6d2 <clr_key>
		}
	}
	return 0;
    14dc:	80 e0       	ldi	r24, 0x00	; 0
    14de:	08 95       	ret
    14e0:	80 e0       	ldi	r24, 0x00	; 0
}
    14e2:	08 95       	ret

000014e4 <control_key_val>:
//-----------------------------------------------------------------------------------------------------------------
//return 1 if cursor output left
//return 2 if cursor output right

static uint8_t control_key_val(uint8_t* array_str){
if(key== _right){
    14e4:	20 91 18 01 	lds	r18, 0x0118	; 0x800118 <key>
    14e8:	27 31       	cpi	r18, 0x17	; 23
    14ea:	19 f5       	brne	.+70     	; 0x1532 <control_key_val+0x4e>
	index_cursor++;
    14ec:	80 91 1a 01 	lds	r24, 0x011A	; 0x80011a <index_cursor>
    14f0:	8f 5f       	subi	r24, 0xFF	; 255
    14f2:	80 93 1a 01 	sts	0x011A, r24	; 0x80011a <index_cursor>
	if(index_cursor>10){
    14f6:	80 91 1a 01 	lds	r24, 0x011A	; 0x80011a <index_cursor>
    14fa:	8b 30       	cpi	r24, 0x0B	; 11
    14fc:	20 f0       	brcs	.+8      	; 0x1506 <control_key_val+0x22>
		//clr_blink();
		clr_key();
    14fe:	0e 94 69 03 	call	0x6d2	; 0x6d2 <clr_key>
		return 2;
    1502:	82 e0       	ldi	r24, 0x02	; 2
    1504:	08 95       	ret
	}
	else
	{
	
		if(index_cursor==2){
    1506:	80 91 1a 01 	lds	r24, 0x011A	; 0x80011a <index_cursor>
    150a:	82 30       	cpi	r24, 0x02	; 2
    150c:	19 f4       	brne	.+6      	; 0x1514 <control_key_val+0x30>
			index_cursor=3;
    150e:	83 e0       	ldi	r24, 0x03	; 3
    1510:	80 93 1a 01 	sts	0x011A, r24	; 0x80011a <index_cursor>
		}
		if (index_cursor>=4){
    1514:	80 91 1a 01 	lds	r24, 0x011A	; 0x80011a <index_cursor>
    1518:	84 30       	cpi	r24, 0x04	; 4
    151a:	18 f0       	brcs	.+6      	; 0x1522 <control_key_val+0x3e>
			index_cursor=10;
    151c:	8a e0       	ldi	r24, 0x0A	; 10
    151e:	80 93 1a 01 	sts	0x011A, r24	; 0x80011a <index_cursor>
		}
	}
	//clr_blink();
	blinc_cursor(index_cursor);
    1522:	80 91 1a 01 	lds	r24, 0x011A	; 0x80011a <index_cursor>
    1526:	0e 94 7d 04 	call	0x8fa	; 0x8fa <blinc_cursor>
	clr_key();		
    152a:	0e 94 69 03 	call	0x6d2	; 0x6d2 <clr_key>
			//clr_blink();
			blinc_cursor(index_cursor);
			clr_key();
		}
}
		return 0;
    152e:	80 e0       	ldi	r24, 0x00	; 0
    1530:	08 95       	ret
	}
	//clr_blink();
	blinc_cursor(index_cursor);
	clr_key();		
}else
if(key== _up){
    1532:	20 91 18 01 	lds	r18, 0x0118	; 0x800118 <key>
    1536:	2f 30       	cpi	r18, 0x0F	; 15
    1538:	f9 f4       	brne	.+62     	; 0x1578 <control_key_val+0x94>
	array_str[index_cursor]++;
    153a:	20 91 1a 01 	lds	r18, 0x011A	; 0x80011a <index_cursor>
    153e:	fc 01       	movw	r30, r24
    1540:	e2 0f       	add	r30, r18
    1542:	f1 1d       	adc	r31, r1
    1544:	20 81       	ld	r18, Z
    1546:	2f 5f       	subi	r18, 0xFF	; 255
    1548:	20 83       	st	Z, r18
	if(index_cursor<=3){
    154a:	20 91 1a 01 	lds	r18, 0x011A	; 0x80011a <index_cursor>
    154e:	24 30       	cpi	r18, 0x04	; 4
    1550:	78 f4       	brcc	.+30     	; 0x1570 <control_key_val+0x8c>
		if (array_str[index_cursor]>=0x3a)
    1552:	20 91 1a 01 	lds	r18, 0x011A	; 0x80011a <index_cursor>
    1556:	fc 01       	movw	r30, r24
    1558:	e2 0f       	add	r30, r18
    155a:	f1 1d       	adc	r31, r1
    155c:	20 81       	ld	r18, Z
    155e:	2a 33       	cpi	r18, 0x3A	; 58
    1560:	38 f0       	brcs	.+14     	; 0x1570 <control_key_val+0x8c>
		{
			array_str[index_cursor]=0x39;
    1562:	20 91 1a 01 	lds	r18, 0x011A	; 0x80011a <index_cursor>
    1566:	fc 01       	movw	r30, r24
    1568:	e2 0f       	add	r30, r18
    156a:	f1 1d       	adc	r31, r1
    156c:	29 e3       	ldi	r18, 0x39	; 57
    156e:	20 83       	st	Z, r18
		}
	}
	clr_key();
    1570:	0e 94 69 03 	call	0x6d2	; 0x6d2 <clr_key>
	return 3;
    1574:	83 e0       	ldi	r24, 0x03	; 3
    1576:	08 95       	ret
}else
if(key==_down){
    1578:	20 91 18 01 	lds	r18, 0x0118	; 0x800118 <key>
    157c:	2d 31       	cpi	r18, 0x1D	; 29
    157e:	09 f0       	breq	.+2      	; 0x1582 <control_key_val+0x9e>
    1580:	b5 c0       	rjmp	.+362    	; 0x16ec <control_key_val+0x208>
	if(index_cursor<=3){
    1582:	20 91 1a 01 	lds	r18, 0x011A	; 0x80011a <index_cursor>
    1586:	24 30       	cpi	r18, 0x04	; 4
    1588:	80 f4       	brcc	.+32     	; 0x15aa <control_key_val+0xc6>
		if(array_str[index_cursor]==0x30){
    158a:	20 91 1a 01 	lds	r18, 0x011A	; 0x80011a <index_cursor>
    158e:	fc 01       	movw	r30, r24
    1590:	e2 0f       	add	r30, r18
    1592:	f1 1d       	adc	r31, r1
    1594:	20 81       	ld	r18, Z
    1596:	20 33       	cpi	r18, 0x30	; 48
    1598:	41 f0       	breq	.+16     	; 0x15aa <control_key_val+0xc6>
			;
		}else
		{
			array_str[index_cursor]--;
    159a:	20 91 1a 01 	lds	r18, 0x011A	; 0x80011a <index_cursor>
    159e:	fc 01       	movw	r30, r24
    15a0:	e2 0f       	add	r30, r18
    15a2:	f1 1d       	adc	r31, r1
    15a4:	80 81       	ld	r24, Z
    15a6:	81 50       	subi	r24, 0x01	; 1
    15a8:	80 83       	st	Z, r24
		}
	}
	if(index_cursor==10){
    15aa:	80 91 1a 01 	lds	r24, 0x011A	; 0x80011a <index_cursor>
    15ae:	8a 30       	cpi	r24, 0x0A	; 10
    15b0:	09 f0       	breq	.+2      	; 0x15b4 <control_key_val+0xd0>
    15b2:	98 c0       	rjmp	.+304    	; 0x16e4 <control_key_val+0x200>
		
			if ((state==TEMPERATURE_LOWER_LIMIT)||(state==TEMPERATURE_HIGH_LIMIT))
    15b4:	80 91 19 01 	lds	r24, 0x0119	; 0x800119 <state>
    15b8:	80 32       	cpi	r24, 0x20	; 32
    15ba:	29 f0       	breq	.+10     	; 0x15c6 <control_key_val+0xe2>
    15bc:	80 91 19 01 	lds	r24, 0x0119	; 0x800119 <state>
    15c0:	81 32       	cpi	r24, 0x21	; 33
    15c2:	09 f0       	breq	.+2      	; 0x15c6 <control_key_val+0xe2>
    15c4:	7c c0       	rjmp	.+248    	; 0x16be <control_key_val+0x1da>
			{
				
				temperature.setp_value_low_bin=100*(temperature.string_setp_value_low[0]&0x0F)+10*(temperature.string_setp_value_low[1]&0x0F)+(temperature.string_setp_value_low[3]&0x0F);	//##.# - ###   *10;
    15c6:	eb e5       	ldi	r30, 0x5B	; 91
    15c8:	f1 e0       	ldi	r31, 0x01	; 1
    15ca:	23 85       	ldd	r18, Z+11	; 0x0b
    15cc:	2f 70       	andi	r18, 0x0F	; 15
    15ce:	74 e6       	ldi	r23, 0x64	; 100
    15d0:	84 85       	ldd	r24, Z+12	; 0x0c
    15d2:	8f 70       	andi	r24, 0x0F	; 15
    15d4:	90 e0       	ldi	r25, 0x00	; 0
    15d6:	ac 01       	movw	r20, r24
    15d8:	44 0f       	add	r20, r20
    15da:	55 1f       	adc	r21, r21
    15dc:	88 0f       	add	r24, r24
    15de:	99 1f       	adc	r25, r25
    15e0:	88 0f       	add	r24, r24
    15e2:	99 1f       	adc	r25, r25
    15e4:	88 0f       	add	r24, r24
    15e6:	99 1f       	adc	r25, r25
    15e8:	48 0f       	add	r20, r24
    15ea:	59 1f       	adc	r21, r25
    15ec:	72 9f       	mul	r23, r18
    15ee:	40 0d       	add	r20, r0
    15f0:	51 1d       	adc	r21, r1
    15f2:	11 24       	eor	r1, r1
    15f4:	86 85       	ldd	r24, Z+14	; 0x0e
    15f6:	8f 70       	andi	r24, 0x0F	; 15
    15f8:	48 0f       	add	r20, r24
    15fa:	51 1d       	adc	r21, r1
    15fc:	53 8b       	std	Z+19, r21	; 0x13
    15fe:	42 8b       	std	Z+18, r20	; 0x12
				temperature.setp_value_hight_bin=100*(temperature.string_setp_value_hight[0]&0x0F)+10*(temperature.string_setp_value_hight[1]&0x0F)+(temperature.string_setp_value_hight[3]&0x0F);	//##.# - ###   *10;
    1600:	62 81       	ldd	r22, Z+2	; 0x02
    1602:	6f 70       	andi	r22, 0x0F	; 15
    1604:	23 81       	ldd	r18, Z+3	; 0x03
    1606:	2f 70       	andi	r18, 0x0F	; 15
    1608:	30 e0       	ldi	r19, 0x00	; 0
    160a:	c9 01       	movw	r24, r18
    160c:	88 0f       	add	r24, r24
    160e:	99 1f       	adc	r25, r25
    1610:	22 0f       	add	r18, r18
    1612:	33 1f       	adc	r19, r19
    1614:	22 0f       	add	r18, r18
    1616:	33 1f       	adc	r19, r19
    1618:	22 0f       	add	r18, r18
    161a:	33 1f       	adc	r19, r19
    161c:	82 0f       	add	r24, r18
    161e:	93 1f       	adc	r25, r19
    1620:	76 9f       	mul	r23, r22
    1622:	80 0d       	add	r24, r0
    1624:	91 1d       	adc	r25, r1
    1626:	11 24       	eor	r1, r1
    1628:	25 81       	ldd	r18, Z+5	; 0x05
    162a:	2f 70       	andi	r18, 0x0F	; 15
    162c:	82 0f       	add	r24, r18
    162e:	91 1d       	adc	r25, r1
    1630:	92 87       	std	Z+10, r25	; 0x0a
    1632:	81 87       	std	Z+9, r24	; 0x09
				if (temperature.setp_value_low_bin>=temperature.setp_value_hight_bin)
    1634:	48 17       	cp	r20, r24
    1636:	59 07       	cpc	r21, r25
    1638:	70 f1       	brcs	.+92     	; 0x1696 <control_key_val+0x1b2>
				{
					clr_blink();
    163a:	0e 94 d2 04 	call	0x9a4	; 0x9a4 <clr_blink>
	printf("Coeff. :%0.4u %0.3u",battery_voltage_coefficient, mul);	
	
}
//------------------------------------------------------------------------------------------------------------------
static void build_windou_warning(void){
	lcd_1_strin();
    163e:	0e 94 19 1a 	call	0x3432	; 0x3432 <lcd_1_strin>
	printf_P(PSTR("Warning setpoint"));
    1642:	8a eb       	ldi	r24, 0xBA	; 186
    1644:	90 e0       	ldi	r25, 0x00	; 0
    1646:	9f 93       	push	r25
    1648:	8f 93       	push	r24
    164a:	0e 94 81 1a 	call	0x3502	; 0x3502 <printf_P>
	lcd_2_strin();
    164e:	0e 94 20 1a 	call	0x3440	; 0x3440 <lcd_2_strin>
	printf_P(PSTR("  Low  >  Hight "));
    1652:	89 ea       	ldi	r24, 0xA9	; 169
    1654:	90 e0       	ldi	r25, 0x00	; 0
    1656:	9f 93       	push	r25
    1658:	8f 93       	push	r24
    165a:	0e 94 81 1a 	call	0x3502	; 0x3502 <printf_P>
	lcd_1_strin();
    165e:	0e 94 19 1a 	call	0x3432	; 0x3432 <lcd_1_strin>
				temperature.setp_value_hight_bin=100*(temperature.string_setp_value_hight[0]&0x0F)+10*(temperature.string_setp_value_hight[1]&0x0F)+(temperature.string_setp_value_hight[3]&0x0F);	//##.# - ###   *10;
				if (temperature.setp_value_low_bin>=temperature.setp_value_hight_bin)
				{
					clr_blink();
					build_windou_warning();
					wdt_reset ();
    1662:	a8 95       	wdr
    1664:	2f ef       	ldi	r18, 0xFF	; 255
    1666:	83 ed       	ldi	r24, 0xD3	; 211
    1668:	90 e3       	ldi	r25, 0x30	; 48
    166a:	21 50       	subi	r18, 0x01	; 1
    166c:	80 40       	sbci	r24, 0x00	; 0
    166e:	90 40       	sbci	r25, 0x00	; 0
    1670:	e1 f7       	brne	.-8      	; 0x166a <control_key_val+0x186>
    1672:	00 c0       	rjmp	.+0      	; 0x1674 <control_key_val+0x190>
    1674:	00 00       	nop
					_delay_ms(1000);
					wdt_reset ();
    1676:	a8 95       	wdr
    1678:	2f ef       	ldi	r18, 0xFF	; 255
    167a:	89 e6       	ldi	r24, 0x69	; 105
    167c:	98 e1       	ldi	r25, 0x18	; 24
    167e:	21 50       	subi	r18, 0x01	; 1
    1680:	80 40       	sbci	r24, 0x00	; 0
    1682:	90 40       	sbci	r25, 0x00	; 0
    1684:	e1 f7       	brne	.-8      	; 0x167e <control_key_val+0x19a>
    1686:	00 c0       	rjmp	.+0      	; 0x1688 <control_key_val+0x1a4>
    1688:	00 00       	nop
					_delay_ms(500);
					wdt_reset ();
    168a:	a8 95       	wdr
    168c:	0f 90       	pop	r0
    168e:	0f 90       	pop	r0
    1690:	0f 90       	pop	r0
    1692:	0f 90       	pop	r0
    1694:	27 c0       	rjmp	.+78     	; 0x16e4 <control_key_val+0x200>
					//blinc_cursor(index_cursor);
				} 
				else
				{
					store_setp();
    1696:	0e 94 d9 04 	call	0x9b2	; 0x9b2 <store_setp>
					read_eeprom_setp();
    169a:	0e 94 ed 06 	call	0xdda	; 0xdda <read_eeprom_setp>
					clr_blink();
    169e:	0e 94 d2 04 	call	0x9a4	; 0x9a4 <clr_blink>
					build_windou_stored();
    16a2:	0e 94 8e 03 	call	0x71c	; 0x71c <build_windou_stored>
					wdt_reset ();
    16a6:	a8 95       	wdr
    16a8:	2f ef       	ldi	r18, 0xFF	; 255
    16aa:	83 ed       	ldi	r24, 0xD3	; 211
    16ac:	90 e3       	ldi	r25, 0x30	; 48
    16ae:	21 50       	subi	r18, 0x01	; 1
    16b0:	80 40       	sbci	r24, 0x00	; 0
    16b2:	90 40       	sbci	r25, 0x00	; 0
    16b4:	e1 f7       	brne	.-8      	; 0x16ae <control_key_val+0x1ca>
    16b6:	00 c0       	rjmp	.+0      	; 0x16b8 <control_key_val+0x1d4>
    16b8:	00 00       	nop
					_delay_ms(1000);
					wdt_reset ();
    16ba:	a8 95       	wdr
    16bc:	13 c0       	rjmp	.+38     	; 0x16e4 <control_key_val+0x200>
				
					
			} 
			else
			{
					store_setp();
    16be:	0e 94 d9 04 	call	0x9b2	; 0x9b2 <store_setp>
					read_eeprom_setp();
    16c2:	0e 94 ed 06 	call	0xdda	; 0xdda <read_eeprom_setp>
					clr_blink();
    16c6:	0e 94 d2 04 	call	0x9a4	; 0x9a4 <clr_blink>
					build_windou_stored();
    16ca:	0e 94 8e 03 	call	0x71c	; 0x71c <build_windou_stored>
					wdt_reset ();
    16ce:	a8 95       	wdr
    16d0:	2f ef       	ldi	r18, 0xFF	; 255
    16d2:	83 ed       	ldi	r24, 0xD3	; 211
    16d4:	90 e3       	ldi	r25, 0x30	; 48
    16d6:	21 50       	subi	r18, 0x01	; 1
    16d8:	80 40       	sbci	r24, 0x00	; 0
    16da:	90 40       	sbci	r25, 0x00	; 0
    16dc:	e1 f7       	brne	.-8      	; 0x16d6 <control_key_val+0x1f2>
    16de:	00 c0       	rjmp	.+0      	; 0x16e0 <control_key_val+0x1fc>
    16e0:	00 00       	nop
					_delay_ms(1000);
					wdt_reset ();
    16e2:	a8 95       	wdr
					//blinc_cursor(index_cursor);
			}
	}
	clr_key();
    16e4:	0e 94 69 03 	call	0x6d2	; 0x6d2 <clr_key>
	return 3;
    16e8:	83 e0       	ldi	r24, 0x03	; 3
    16ea:	08 95       	ret
}else
if(key==_left){
    16ec:	80 91 18 01 	lds	r24, 0x0118	; 0x800118 <key>
    16f0:	8b 31       	cpi	r24, 0x1B	; 27
    16f2:	29 f5       	brne	.+74     	; 0x173e <control_key_val+0x25a>
		if(index_cursor==0){
    16f4:	80 91 1a 01 	lds	r24, 0x011A	; 0x80011a <index_cursor>
    16f8:	81 11       	cpse	r24, r1
    16fa:	04 c0       	rjmp	.+8      	; 0x1704 <control_key_val+0x220>
			//clr_blink();
			clr_key();
    16fc:	0e 94 69 03 	call	0x6d2	; 0x6d2 <clr_key>
			return 1;
    1700:	81 e0       	ldi	r24, 0x01	; 1
    1702:	08 95       	ret
		}
		else
		{
			if(index_cursor==10){
    1704:	80 91 1a 01 	lds	r24, 0x011A	; 0x80011a <index_cursor>
    1708:	8a 30       	cpi	r24, 0x0A	; 10
    170a:	21 f4       	brne	.+8      	; 0x1714 <control_key_val+0x230>
				index_cursor=3;	
    170c:	83 e0       	ldi	r24, 0x03	; 3
    170e:	80 93 1a 01 	sts	0x011A, r24	; 0x80011a <index_cursor>
    1712:	0d c0       	rjmp	.+26     	; 0x172e <control_key_val+0x24a>
			}else	if(index_cursor==3){
    1714:	80 91 1a 01 	lds	r24, 0x011A	; 0x80011a <index_cursor>
    1718:	83 30       	cpi	r24, 0x03	; 3
    171a:	21 f4       	brne	.+8      	; 0x1724 <control_key_val+0x240>
				index_cursor=1;
    171c:	81 e0       	ldi	r24, 0x01	; 1
    171e:	80 93 1a 01 	sts	0x011A, r24	; 0x80011a <index_cursor>
    1722:	05 c0       	rjmp	.+10     	; 0x172e <control_key_val+0x24a>
			}else{	
				index_cursor--;
    1724:	80 91 1a 01 	lds	r24, 0x011A	; 0x80011a <index_cursor>
    1728:	81 50       	subi	r24, 0x01	; 1
    172a:	80 93 1a 01 	sts	0x011A, r24	; 0x80011a <index_cursor>
			}
			//clr_blink();
			blinc_cursor(index_cursor);
    172e:	80 91 1a 01 	lds	r24, 0x011A	; 0x80011a <index_cursor>
    1732:	0e 94 7d 04 	call	0x8fa	; 0x8fa <blinc_cursor>
			clr_key();
    1736:	0e 94 69 03 	call	0x6d2	; 0x6d2 <clr_key>
		}
}
		return 0;
    173a:	80 e0       	ldi	r24, 0x00	; 0
    173c:	08 95       	ret
    173e:	80 e0       	ldi	r24, 0x00	; 0
}
    1740:	08 95       	ret

00001742 <therm_reset>:

//  
uint8_t therm_reset(){
	uint8_t i;
	//     480uS
	THERM_LOW();
    1742:	de 98       	cbi	0x1b, 6	; 27
	THERM_OUTPUT_MODE();
    1744:	d6 9a       	sbi	0x1a, 6	; 26
	#else
		//round up by default
		__ticks_dc = (uint32_t)(ceil(fabs(__tmp)));
	#endif

	__builtin_avr_delay_cycles(__ticks_dc);
    1746:	8f e7       	ldi	r24, 0x7F	; 127
    1748:	97 e0       	ldi	r25, 0x07	; 7
    174a:	01 97       	sbiw	r24, 0x01	; 1
    174c:	f1 f7       	brne	.-4      	; 0x174a <therm_reset+0x8>
    174e:	00 c0       	rjmp	.+0      	; 0x1750 <therm_reset+0xe>
    1750:	00 00       	nop
	_delay_us(480);             //     
	//    60uS
	THERM_INPUT_MODE();
    1752:	d6 98       	cbi	0x1a, 6	; 26
    1754:	ef ee       	ldi	r30, 0xEF	; 239
    1756:	f0 e0       	ldi	r31, 0x00	; 0
    1758:	31 97       	sbiw	r30, 0x01	; 1
    175a:	f1 f7       	brne	.-4      	; 0x1758 <therm_reset+0x16>
    175c:	00 c0       	rjmp	.+0      	; 0x175e <therm_reset+0x1c>
    175e:	00 00       	nop
	_delay_us(60);
	//       480uS
	i=(THERM_PIN & (1<<THERM_DQ));
    1760:	89 b3       	in	r24, 0x19	; 25
    1762:	ef e8       	ldi	r30, 0x8F	; 143
    1764:	f6 e0       	ldi	r31, 0x06	; 6
    1766:	31 97       	sbiw	r30, 0x01	; 1
    1768:	f1 f7       	brne	.-4      	; 0x1766 <therm_reset+0x24>
    176a:	00 c0       	rjmp	.+0      	; 0x176c <therm_reset+0x2a>
    176c:	00 00       	nop
	_delay_us(420);
	//   (0=OK, 1=  )
	return i;
}
    176e:	80 74       	andi	r24, 0x40	; 64
    1770:	08 95       	ret

00001772 <therm_write_bit>:


//   
void therm_write_bit(uint8_t bit){
	//   1uS
	THERM_LOW();
    1772:	de 98       	cbi	0x1b, 6	; 27
	THERM_OUTPUT_MODE();
    1774:	d6 9a       	sbi	0x1a, 6	; 26
    1776:	95 e0       	ldi	r25, 0x05	; 5
    1778:	9a 95       	dec	r25
    177a:	f1 f7       	brne	.-4      	; 0x1778 <therm_write_bit+0x6>
    177c:	00 00       	nop
	_delay_us(1);
	//    1,   ( ,   )
	if(bit) THERM_INPUT_MODE();
    177e:	81 11       	cpse	r24, r1
    1780:	d6 98       	cbi	0x1a, 6	; 26
    1782:	8f ee       	ldi	r24, 0xEF	; 239
    1784:	90 e0       	ldi	r25, 0x00	; 0
    1786:	01 97       	sbiw	r24, 0x01	; 1
    1788:	f1 f7       	brne	.-4      	; 0x1786 <therm_write_bit+0x14>
    178a:	00 c0       	rjmp	.+0      	; 0x178c <therm_write_bit+0x1a>
    178c:	00 00       	nop
	//  60uS   
	_delay_us(60);
	THERM_INPUT_MODE();
    178e:	d6 98       	cbi	0x1a, 6	; 26
    1790:	08 95       	ret

00001792 <therm_read_bit>:

//  
uint8_t therm_read_bit(void){
	uint8_t bit=0;
	//   1uS
	THERM_LOW();
    1792:	de 98       	cbi	0x1b, 6	; 27
	THERM_OUTPUT_MODE();
    1794:	d6 9a       	sbi	0x1a, 6	; 26
    1796:	85 e0       	ldi	r24, 0x05	; 5
    1798:	8a 95       	dec	r24
    179a:	f1 f7       	brne	.-4      	; 0x1798 <therm_read_bit+0x6>
    179c:	00 00       	nop
	_delay_us(1);
	//   14uS
	THERM_INPUT_MODE();
    179e:	d6 98       	cbi	0x1a, 6	; 26
    17a0:	9a e4       	ldi	r25, 0x4A	; 74
    17a2:	9a 95       	dec	r25
    17a4:	f1 f7       	brne	.-4      	; 0x17a2 <therm_read_bit+0x10>
    17a6:	00 c0       	rjmp	.+0      	; 0x17a8 <therm_read_bit+0x16>
	_delay_us(14);
	//  
	if(THERM_PIN&(1<<THERM_DQ)) bit=1;
    17a8:	89 b3       	in	r24, 0x19	; 25
    17aa:	90 ef       	ldi	r25, 0xF0	; 240
    17ac:	9a 95       	dec	r25
    17ae:	f1 f7       	brne	.-4      	; 0x17ac <therm_read_bit+0x1a>
	//  45    
	_delay_us(45);
	return bit;
}
    17b0:	86 fb       	bst	r24, 6
    17b2:	88 27       	eor	r24, r24
    17b4:	80 f9       	bld	r24, 0
    17b6:	08 95       	ret

000017b8 <therm_read_byte>:

//  
uint8_t therm_read_byte(void){
    17b8:	cf 93       	push	r28
    17ba:	df 93       	push	r29
    17bc:	d8 e0       	ldi	r29, 0x08	; 8
	uint8_t i=8, n=0;
    17be:	c0 e0       	ldi	r28, 0x00	; 0
	while(i--){
		//     1    
		n>>=1;
		n|=(therm_read_bit()<<7);
    17c0:	0e 94 c9 0b 	call	0x1792	; 0x1792 <therm_read_bit>
    17c4:	20 e8       	ldi	r18, 0x80	; 128
    17c6:	82 9f       	mul	r24, r18
    17c8:	c0 01       	movw	r24, r0
    17ca:	11 24       	eor	r1, r1
    17cc:	c6 95       	lsr	r28
    17ce:	c8 2b       	or	r28, r24
    17d0:	d1 50       	subi	r29, 0x01	; 1
}

//  
uint8_t therm_read_byte(void){
	uint8_t i=8, n=0;
	while(i--){
    17d2:	b1 f7       	brne	.-20     	; 0x17c0 <therm_read_byte+0x8>
		//     1    
		n>>=1;
		n|=(therm_read_bit()<<7);
	}
	return n;
}
    17d4:	8c 2f       	mov	r24, r28
    17d6:	df 91       	pop	r29
    17d8:	cf 91       	pop	r28
    17da:	08 95       	ret

000017dc <therm_write_byte>:

//  
void therm_write_byte(uint8_t byte){
    17dc:	cf 93       	push	r28
    17de:	df 93       	push	r29
    17e0:	d8 2f       	mov	r29, r24
    17e2:	c8 e0       	ldi	r28, 0x08	; 8
	uint8_t i=8;
	while(i--){
		//       1
		therm_write_bit(byte&1);
    17e4:	8d 2f       	mov	r24, r29
    17e6:	81 70       	andi	r24, 0x01	; 1
    17e8:	0e 94 b9 0b 	call	0x1772	; 0x1772 <therm_write_bit>
		byte>>=1;
    17ec:	d6 95       	lsr	r29
    17ee:	c1 50       	subi	r28, 0x01	; 1
}

//  
void therm_write_byte(uint8_t byte){
	uint8_t i=8;
	while(i--){
    17f0:	c9 f7       	brne	.-14     	; 0x17e4 <therm_write_byte+0x8>
		//       1
		therm_write_bit(byte&1);
		byte>>=1;
	}
}
    17f2:	df 91       	pop	r29
    17f4:	cf 91       	pop	r28
    17f6:	08 95       	ret

000017f8 <meas_temp>:
			battery_voltage_string_current_value[3] ='-';
	}
}
//------------------------------------------------
//!!static inline
static void meas_temp(void){
    17f8:	0f 93       	push	r16
    17fa:	1f 93       	push	r17
    17fc:	cf 93       	push	r28
    17fe:	df 93       	push	r29

//    
	uint32_t tmp;
	uint8_t temperatur[2];

	therm_reset();
    1800:	0e 94 a1 0b 	call	0x1742	; 0x1742 <therm_reset>
	
	while(!therm_read_bit());
    1804:	0e 94 c9 0b 	call	0x1792	; 0x1792 <therm_read_bit>
    1808:	88 23       	and	r24, r24
    180a:	e1 f3       	breq	.-8      	; 0x1804 <meas_temp+0xc>
	
	therm_reset();
    180c:	0e 94 a1 0b 	call	0x1742	; 0x1742 <therm_reset>
	therm_write_byte(THERM_CMD_SKIPROM);
    1810:	8c ec       	ldi	r24, 0xCC	; 204
    1812:	0e 94 ee 0b 	call	0x17dc	; 0x17dc <therm_write_byte>
	therm_write_byte(THERM_CMD_RSCRATCHPAD);
    1816:	8e eb       	ldi	r24, 0xBE	; 190
    1818:	0e 94 ee 0b 	call	0x17dc	; 0x17dc <therm_write_byte>
	
	temperatur[0]=therm_read_byte();
    181c:	0e 94 dc 0b 	call	0x17b8	; 0x17b8 <therm_read_byte>
    1820:	c8 2f       	mov	r28, r24
	temperatur[1]=therm_read_byte();
    1822:	0e 94 dc 0b 	call	0x17b8	; 0x17b8 <therm_read_byte>
    1826:	d8 2f       	mov	r29, r24
	therm_reset();
    1828:	0e 94 a1 0b 	call	0x1742	; 0x1742 <therm_reset>

	
	
	
	 tmp = ((uint32_t)temperatur[1]<<8)|temperatur[0];
    182c:	8c 2f       	mov	r24, r28
    182e:	90 e0       	ldi	r25, 0x00	; 0
    1830:	a0 e0       	ldi	r26, 0x00	; 0
    1832:	b0 e0       	ldi	r27, 0x00	; 0
    1834:	9c 01       	movw	r18, r24
    1836:	ad 01       	movw	r20, r26
    1838:	3d 2b       	or	r19, r29
	if(temperatur[1]&0xf8){
    183a:	d8 7f       	andi	r29, 0xF8	; 248
    183c:	09 f4       	brne	.+2      	; 0x1840 <meas_temp+0x48>
    183e:	4d c0       	rjmp	.+154    	; 0x18da <meas_temp+0xe2>
		temperature.sig=1;
    1840:	cb e5       	ldi	r28, 0x5B	; 91
    1842:	d1 e0       	ldi	r29, 0x01	; 1
    1844:	81 e0       	ldi	r24, 0x01	; 1
    1846:	90 e0       	ldi	r25, 0x00	; 0
    1848:	9e 8f       	std	Y+30, r25	; 0x1e
    184a:	8d 8f       	std	Y+29, r24	; 0x1d
	if(temperature.sig)
	{
		//-  selected_x_bits_inverted = (x & ~mask) | (~x & mask);
		//temperature.current_value_bin = (temperature.current_value_bin^0xFFFF)+1;	//(temperature.current_value_bin & ~0xFFFF) | (~temperature.current_value_bin & 0xFFFF); 
		//temperature.current_value_bin = temperature.current_value_bin+1;
		tmp +=0xFFFF0000;
    184c:	41 50       	subi	r20, 0x01	; 1
    184e:	51 09       	sbc	r21, r1
		tmp = ~tmp + 1;
		tmp*=THERM_DECIMAL_STEPS_12BIT;
		temperature.current_value_bin=tmp/1000;
    1850:	af e8       	ldi	r26, 0x8F	; 143
    1852:	bd ef       	ldi	r27, 0xFD	; 253
    1854:	0e 94 66 1a 	call	0x34cc	; 0x34cc <__mulohisi3>
    1858:	28 ee       	ldi	r18, 0xE8	; 232
    185a:	33 e0       	ldi	r19, 0x03	; 3
    185c:	40 e0       	ldi	r20, 0x00	; 0
    185e:	50 e0       	ldi	r21, 0x00	; 0
    1860:	0e 94 27 1a 	call	0x344e	; 0x344e <__udivmodsi4>
    1864:	42 2f       	mov	r20, r18
    1866:	e2 2f       	mov	r30, r18
    1868:	f3 2f       	mov	r31, r19
    186a:	fc 8f       	std	Y+28, r31	; 0x1c
    186c:	eb 8f       	std	Y+27, r30	; 0x1b
		
		temperature.string_current_value[0] = (temperature.current_value_bin/100);
    186e:	9f 01       	movw	r18, r30
    1870:	36 95       	lsr	r19
    1872:	27 95       	ror	r18
    1874:	36 95       	lsr	r19
    1876:	27 95       	ror	r18
    1878:	ab e7       	ldi	r26, 0x7B	; 123
    187a:	b4 e1       	ldi	r27, 0x14	; 20
    187c:	0e 94 49 1a 	call	0x3492	; 0x3492 <__umulhisi3>
    1880:	8c 01       	movw	r16, r24
    1882:	16 95       	lsr	r17
    1884:	07 95       	ror	r16
		temperature.string_current_value[1] = ((temperature.current_value_bin-(temperature.string_current_value[0]*100))/10);
    1886:	9f 01       	movw	r18, r30
    1888:	84 e6       	ldi	r24, 0x64	; 100
    188a:	08 9f       	mul	r16, r24
    188c:	20 19       	sub	r18, r0
    188e:	31 09       	sbc	r19, r1
    1890:	11 24       	eor	r1, r1
    1892:	ad ec       	ldi	r26, 0xCD	; 205
    1894:	bc ec       	ldi	r27, 0xCC	; 204
    1896:	0e 94 49 1a 	call	0x3492	; 0x3492 <__umulhisi3>
    189a:	96 95       	lsr	r25
    189c:	87 95       	ror	r24
    189e:	96 95       	lsr	r25
    18a0:	87 95       	ror	r24
    18a2:	96 95       	lsr	r25
    18a4:	87 95       	ror	r24
		temperature.string_current_value[2] = 0x2e;
    18a6:	9e e2       	ldi	r25, 0x2E	; 46
    18a8:	9e 8b       	std	Y+22, r25	; 0x16
		temperature.string_current_value[3] = (temperature.current_value_bin-((temperature.string_current_value[0]*100)+(temperature.string_current_value[1]*10)));
		temperature.string_current_value[4] = 0xdf;		//0xb0;
    18aa:	9f ed       	ldi	r25, 0xDF	; 223
    18ac:	98 8f       	std	Y+24, r25	; 0x18
		temperature.string_current_value[5] = 0x43;
    18ae:	93 e4       	ldi	r25, 0x43	; 67
    18b0:	99 8f       	std	Y+25, r25	; 0x19
		temperature.string_current_value[6] = 0x00;
    18b2:	1a 8e       	std	Y+26, r1	; 0x1a

		temperature.string_current_value[0] |= 0x30;
    18b4:	90 2f       	mov	r25, r16
    18b6:	90 63       	ori	r25, 0x30	; 48
    18b8:	9c 8b       	std	Y+20, r25	; 0x14
		temperature.string_current_value[1] |= 0x30;
    18ba:	98 2f       	mov	r25, r24
    18bc:	90 63       	ori	r25, 0x30	; 48
    18be:	9d 8b       	std	Y+21, r25	; 0x15
		temperature.string_current_value[3] |= 0x30;
    18c0:	24 e6       	ldi	r18, 0x64	; 100
    18c2:	02 9f       	mul	r16, r18
    18c4:	40 19       	sub	r20, r0
    18c6:	11 24       	eor	r1, r1
    18c8:	88 0f       	add	r24, r24
    18ca:	98 2f       	mov	r25, r24
    18cc:	99 0f       	add	r25, r25
    18ce:	99 0f       	add	r25, r25
    18d0:	89 0f       	add	r24, r25
    18d2:	48 1b       	sub	r20, r24
    18d4:	40 63       	ori	r20, 0x30	; 48
    18d6:	4f 8b       	std	Y+23, r20	; 0x17
    18d8:	68 c0       	rjmp	.+208    	; 0x19aa <meas_temp+0x1b2>
	 tmp = ((uint32_t)temperatur[1]<<8)|temperatur[0];
	if(temperatur[1]&0xf8){
		temperature.sig=1;
		//tmp = ~tmp + 1;  
	}else{
		temperature.sig=0;
    18da:	cb e5       	ldi	r28, 0x5B	; 91
    18dc:	d1 e0       	ldi	r29, 0x01	; 1
    18de:	1e 8e       	std	Y+30, r1	; 0x1e
    18e0:	1d 8e       	std	Y+29, r1	; 0x1d
	}
	else
	{
		//+
			tmp*=THERM_DECIMAL_STEPS_12BIT;
			temperature.current_value_bin=tmp/1000;
    18e2:	a1 e7       	ldi	r26, 0x71	; 113
    18e4:	b2 e0       	ldi	r27, 0x02	; 2
    18e6:	0e 94 58 1a 	call	0x34b0	; 0x34b0 <__muluhisi3>
    18ea:	28 ee       	ldi	r18, 0xE8	; 232
    18ec:	33 e0       	ldi	r19, 0x03	; 3
    18ee:	40 e0       	ldi	r20, 0x00	; 0
    18f0:	50 e0       	ldi	r21, 0x00	; 0
    18f2:	0e 94 27 1a 	call	0x344e	; 0x344e <__udivmodsi4>
    18f6:	e2 2f       	mov	r30, r18
    18f8:	42 2f       	mov	r20, r18
    18fa:	53 2f       	mov	r21, r19
    18fc:	5c 8f       	std	Y+28, r21	; 0x1c
    18fe:	4b 8f       	std	Y+27, r20	; 0x1b
			if(temperature.current_value_bin>=1000){
    1900:	48 3e       	cpi	r20, 0xE8	; 232
    1902:	33 e0       	ldi	r19, 0x03	; 3
    1904:	53 07       	cpc	r21, r19
    1906:	68 f0       	brcs	.+26     	; 0x1922 <meas_temp+0x12a>
				if(temperature.sig==0){
					temperature.string_current_value[0] = 0x3E;
    1908:	8e e3       	ldi	r24, 0x3E	; 62
    190a:	8c 8b       	std	Y+20, r24	; 0x14
					temperature.string_current_value[1] = 0x31;
    190c:	81 e3       	ldi	r24, 0x31	; 49
    190e:	8d 8b       	std	Y+21, r24	; 0x15
					temperature.string_current_value[2] = 0x30;
    1910:	80 e3       	ldi	r24, 0x30	; 48
    1912:	8e 8b       	std	Y+22, r24	; 0x16
					temperature.string_current_value[3] = 0X30;
    1914:	8f 8b       	std	Y+23, r24	; 0x17
				}
				
				
				temperature.string_current_value[4]	= 0xdf;		//0xb0;
    1916:	8f ed       	ldi	r24, 0xDF	; 223
    1918:	88 8f       	std	Y+24, r24	; 0x18
				temperature.string_current_value[5] = 0x43;
    191a:	83 e4       	ldi	r24, 0x43	; 67
    191c:	89 8f       	std	Y+25, r24	; 0x19
				temperature.string_current_value[6] = 0x00;
    191e:	1a 8e       	std	Y+26, r1	; 0x1a
    1920:	44 c0       	rjmp	.+136    	; 0x19aa <meas_temp+0x1b2>
				
			}
			else{
				temperature.string_current_value[0] = (temperature.current_value_bin/100);
    1922:	9a 01       	movw	r18, r20
    1924:	36 95       	lsr	r19
    1926:	27 95       	ror	r18
    1928:	36 95       	lsr	r19
    192a:	27 95       	ror	r18
    192c:	ab e7       	ldi	r26, 0x7B	; 123
    192e:	b4 e1       	ldi	r27, 0x14	; 20
    1930:	0e 94 49 1a 	call	0x3492	; 0x3492 <__umulhisi3>
    1934:	ec 01       	movw	r28, r24
    1936:	d6 95       	lsr	r29
    1938:	c7 95       	ror	r28
				temperature.string_current_value[1] = ((temperature.current_value_bin-(temperature.string_current_value[0]*100))/10);
    193a:	9a 01       	movw	r18, r20
    193c:	84 e6       	ldi	r24, 0x64	; 100
    193e:	c8 9f       	mul	r28, r24
    1940:	20 19       	sub	r18, r0
    1942:	31 09       	sbc	r19, r1
    1944:	11 24       	eor	r1, r1
    1946:	ad ec       	ldi	r26, 0xCD	; 205
    1948:	bc ec       	ldi	r27, 0xCC	; 204
    194a:	0e 94 49 1a 	call	0x3492	; 0x3492 <__umulhisi3>
    194e:	96 95       	lsr	r25
    1950:	87 95       	ror	r24
    1952:	96 95       	lsr	r25
    1954:	87 95       	ror	r24
    1956:	96 95       	lsr	r25
    1958:	87 95       	ror	r24
				temperature.string_current_value[2] = 0x2e;
    195a:	ab e5       	ldi	r26, 0x5B	; 91
    195c:	b1 e0       	ldi	r27, 0x01	; 1
    195e:	9e e2       	ldi	r25, 0x2E	; 46
    1960:	56 96       	adiw	r26, 0x16	; 22
    1962:	9c 93       	st	X, r25
    1964:	56 97       	sbiw	r26, 0x16	; 22
				temperature.string_current_value[3] = (temperature.current_value_bin-((temperature.string_current_value[0]*100)+(temperature.string_current_value[1]*10)));
				temperature.string_current_value[4] = 0xdf;		//0xb0;
    1966:	9f ed       	ldi	r25, 0xDF	; 223
    1968:	58 96       	adiw	r26, 0x18	; 24
    196a:	9c 93       	st	X, r25
    196c:	58 97       	sbiw	r26, 0x18	; 24
				temperature.string_current_value[5] = 0x43;
    196e:	93 e4       	ldi	r25, 0x43	; 67
    1970:	59 96       	adiw	r26, 0x19	; 25
    1972:	9c 93       	st	X, r25
    1974:	59 97       	sbiw	r26, 0x19	; 25
				temperature.string_current_value[6] = 0x00;
    1976:	5a 96       	adiw	r26, 0x1a	; 26
    1978:	1c 92       	st	X, r1
    197a:	5a 97       	sbiw	r26, 0x1a	; 26

				temperature.string_current_value[0] |= 0x30;
    197c:	9c 2f       	mov	r25, r28
    197e:	90 63       	ori	r25, 0x30	; 48
    1980:	54 96       	adiw	r26, 0x14	; 20
    1982:	9c 93       	st	X, r25
    1984:	54 97       	sbiw	r26, 0x14	; 20
				temperature.string_current_value[1] |= 0x30;
    1986:	98 2f       	mov	r25, r24
    1988:	90 63       	ori	r25, 0x30	; 48
    198a:	55 96       	adiw	r26, 0x15	; 21
    198c:	9c 93       	st	X, r25
    198e:	55 97       	sbiw	r26, 0x15	; 21
				temperature.string_current_value[3] |= 0x30;
    1990:	24 e6       	ldi	r18, 0x64	; 100
    1992:	c2 9f       	mul	r28, r18
    1994:	e0 19       	sub	r30, r0
    1996:	11 24       	eor	r1, r1
    1998:	88 0f       	add	r24, r24
    199a:	98 2f       	mov	r25, r24
    199c:	99 0f       	add	r25, r25
    199e:	99 0f       	add	r25, r25
    19a0:	89 0f       	add	r24, r25
    19a2:	e8 1b       	sub	r30, r24
    19a4:	e0 63       	ori	r30, 0x30	; 48
    19a6:	57 96       	adiw	r26, 0x17	; 23
    19a8:	ec 93       	st	X, r30




	
	therm_write_byte(THERM_CMD_SKIPROM);
    19aa:	8c ec       	ldi	r24, 0xCC	; 204
    19ac:	0e 94 ee 0b 	call	0x17dc	; 0x17dc <therm_write_byte>
	therm_write_byte(THERM_CMD_CONVERTTEMP);
    19b0:	84 e4       	ldi	r24, 0x44	; 68
    19b2:	0e 94 ee 0b 	call	0x17dc	; 0x17dc <therm_write_byte>
	
	
	if((temperature.enable_low==1)&&(temperature.enable_hight))	{
    19b6:	80 91 5b 01 	lds	r24, 0x015B	; 0x80015b <temperature>
    19ba:	81 30       	cpi	r24, 0x01	; 1
    19bc:	91 f4       	brne	.+36     	; 0x19e2 <meas_temp+0x1ea>
    19be:	80 91 5c 01 	lds	r24, 0x015C	; 0x80015c <temperature+0x1>
    19c2:	88 23       	and	r24, r24
    19c4:	71 f0       	breq	.+28     	; 0x19e2 <meas_temp+0x1ea>
		temperature.string_current_value[0] = '-';
    19c6:	eb e5       	ldi	r30, 0x5B	; 91
    19c8:	f1 e0       	ldi	r31, 0x01	; 1
    19ca:	8d e2       	ldi	r24, 0x2D	; 45
    19cc:	84 8b       	std	Z+20, r24	; 0x14
		temperature.string_current_value[1] = '_';
    19ce:	9f e5       	ldi	r25, 0x5F	; 95
    19d0:	95 8b       	std	Z+21, r25	; 0x15
		temperature.string_current_value[2] = 0x2e;
    19d2:	9e e2       	ldi	r25, 0x2E	; 46
    19d4:	96 8b       	std	Z+22, r25	; 0x16
		temperature.string_current_value[3] = '-';
    19d6:	87 8b       	std	Z+23, r24	; 0x17
		temperature.string_current_value[4] = 0xdf;		//0xb0;
    19d8:	8f ed       	ldi	r24, 0xDF	; 223
    19da:	80 8f       	std	Z+24, r24	; 0x18
		temperature.string_current_value[5] = 0x43;
    19dc:	83 e4       	ldi	r24, 0x43	; 67
    19de:	81 8f       	std	Z+25, r24	; 0x19
		temperature.string_current_value[6] = 0x00;
    19e0:	12 8e       	std	Z+26, r1	; 0x1a
	}
	
}
    19e2:	df 91       	pop	r29
    19e4:	cf 91       	pop	r28
    19e6:	1f 91       	pop	r17
    19e8:	0f 91       	pop	r16
    19ea:	08 95       	ret

000019ec <__vector_7>:
	inc_wait_timer();	
	}
}
//------------------------------------------------------------------------------------------------------------------
ISR( TIMER1_COMPB_vect )
{
    19ec:	1f 92       	push	r1
    19ee:	0f 92       	push	r0
    19f0:	0f b6       	in	r0, 0x3f	; 63
    19f2:	0f 92       	push	r0
    19f4:	11 24       	eor	r1, r1
	;

}
    19f6:	0f 90       	pop	r0
    19f8:	0f be       	out	0x3f, r0	; 63
    19fa:	0f 90       	pop	r0
    19fc:	1f 90       	pop	r1
    19fe:	18 95       	reti

00001a00 <__vector_6>:
//------------------------------------------------------------------------------------------------------------------
ISR( TIMER1_COMPA_vect )
{
    1a00:	1f 92       	push	r1
    1a02:	0f 92       	push	r0
    1a04:	0f b6       	in	r0, 0x3f	; 63
    1a06:	0f 92       	push	r0
    1a08:	11 24       	eor	r1, r1
	;
}
    1a0a:	0f 90       	pop	r0
    1a0c:	0f be       	out	0x3f, r0	; 63
    1a0e:	0f 90       	pop	r0
    1a10:	1f 90       	pop	r1
    1a12:	18 95       	reti

00001a14 <__vector_11>:
//**************************************************************************
ISR(USART_RXC_vect)
{
    1a14:	1f 92       	push	r1
    1a16:	0f 92       	push	r0
    1a18:	0f b6       	in	r0, 0x3f	; 63
    1a1a:	0f 92       	push	r0
    1a1c:	11 24       	eor	r1, r1
	//addr_devise;
///	wdt_reset ();
//	receivedData = UDR;//( uint8_t )UDR;	//Collect data.
	
//SREG = sreg;	
}
    1a1e:	0f 90       	pop	r0
    1a20:	0f be       	out	0x3f, r0	; 63
    1a22:	0f 90       	pop	r0
    1a24:	1f 90       	pop	r1
    1a26:	18 95       	reti

00001a28 <inc_wait_timer>:
	
}
//------------------------------------------------------------------------------------------------------------------
void inc_wait_timer(void){	
	//inc wate_time[9];
	wate_time[7]++;
    1a28:	80 91 bf 01 	lds	r24, 0x01BF	; 0x8001bf <wate_time+0x7>
    1a2c:	8f 5f       	subi	r24, 0xFF	; 255
	if(wate_time[7]>=0x3a){
    1a2e:	8a 33       	cpi	r24, 0x3A	; 58
    1a30:	18 f4       	brcc	.+6      	; 0x1a38 <inc_wait_timer+0x10>
	
}
//------------------------------------------------------------------------------------------------------------------
void inc_wait_timer(void){	
	//inc wate_time[9];
	wate_time[7]++;
    1a32:	80 93 bf 01 	sts	0x01BF, r24	; 0x8001bf <wate_time+0x7>
    1a36:	08 95       	ret
	if(wate_time[7]>=0x3a){
		wate_time[7]=0x30;
    1a38:	e8 eb       	ldi	r30, 0xB8	; 184
    1a3a:	f1 e0       	ldi	r31, 0x01	; 1
    1a3c:	80 e3       	ldi	r24, 0x30	; 48
    1a3e:	87 83       	std	Z+7, r24	; 0x07
		wate_time[6]++;
    1a40:	86 81       	ldd	r24, Z+6	; 0x06
    1a42:	8f 5f       	subi	r24, 0xFF	; 255
		if(wate_time[6]>=0x36){
    1a44:	86 33       	cpi	r24, 0x36	; 54
    1a46:	18 f4       	brcc	.+6      	; 0x1a4e <inc_wait_timer+0x26>
void inc_wait_timer(void){	
	//inc wate_time[9];
	wate_time[7]++;
	if(wate_time[7]>=0x3a){
		wate_time[7]=0x30;
		wate_time[6]++;
    1a48:	80 93 be 01 	sts	0x01BE, r24	; 0x8001be <wate_time+0x6>
    1a4c:	08 95       	ret
		if(wate_time[6]>=0x36){
			wate_time[6]=0x30;
    1a4e:	e8 eb       	ldi	r30, 0xB8	; 184
    1a50:	f1 e0       	ldi	r31, 0x01	; 1
    1a52:	80 e3       	ldi	r24, 0x30	; 48
    1a54:	86 83       	std	Z+6, r24	; 0x06
			wate_time[4]++;
    1a56:	84 81       	ldd	r24, Z+4	; 0x04
    1a58:	8f 5f       	subi	r24, 0xFF	; 255
			if(wate_time[4]>=0x3a){
    1a5a:	8a 33       	cpi	r24, 0x3A	; 58
    1a5c:	18 f4       	brcc	.+6      	; 0x1a64 <inc_wait_timer+0x3c>
	if(wate_time[7]>=0x3a){
		wate_time[7]=0x30;
		wate_time[6]++;
		if(wate_time[6]>=0x36){
			wate_time[6]=0x30;
			wate_time[4]++;
    1a5e:	80 93 bc 01 	sts	0x01BC, r24	; 0x8001bc <wate_time+0x4>
    1a62:	08 95       	ret
			if(wate_time[4]>=0x3a){
				wate_time[4]=0x30;
    1a64:	e8 eb       	ldi	r30, 0xB8	; 184
    1a66:	f1 e0       	ldi	r31, 0x01	; 1
    1a68:	80 e3       	ldi	r24, 0x30	; 48
    1a6a:	84 83       	std	Z+4, r24	; 0x04
				wate_time[3]++;
    1a6c:	83 81       	ldd	r24, Z+3	; 0x03
    1a6e:	8f 5f       	subi	r24, 0xFF	; 255
				if(wate_time[3]>=0x36){
    1a70:	86 33       	cpi	r24, 0x36	; 54
    1a72:	18 f4       	brcc	.+6      	; 0x1a7a <inc_wait_timer+0x52>
		if(wate_time[6]>=0x36){
			wate_time[6]=0x30;
			wate_time[4]++;
			if(wate_time[4]>=0x3a){
				wate_time[4]=0x30;
				wate_time[3]++;
    1a74:	80 93 bb 01 	sts	0x01BB, r24	; 0x8001bb <wate_time+0x3>
    1a78:	08 95       	ret
				if(wate_time[3]>=0x36){
					wate_time[3]=0x30;
    1a7a:	e8 eb       	ldi	r30, 0xB8	; 184
    1a7c:	f1 e0       	ldi	r31, 0x01	; 1
    1a7e:	80 e3       	ldi	r24, 0x30	; 48
    1a80:	83 83       	std	Z+3, r24	; 0x03
					wate_time[1]++;
    1a82:	81 81       	ldd	r24, Z+1	; 0x01
    1a84:	8f 5f       	subi	r24, 0xFF	; 255
					if(wate_time[1]>=0x3a){
    1a86:	8a 33       	cpi	r24, 0x3A	; 58
    1a88:	18 f4       	brcc	.+6      	; 0x1a90 <inc_wait_timer+0x68>
			if(wate_time[4]>=0x3a){
				wate_time[4]=0x30;
				wate_time[3]++;
				if(wate_time[3]>=0x36){
					wate_time[3]=0x30;
					wate_time[1]++;
    1a8a:	80 93 b9 01 	sts	0x01B9, r24	; 0x8001b9 <wate_time+0x1>
    1a8e:	08 95       	ret
					if(wate_time[1]>=0x3a){
						wate_time[1]=0x30;
    1a90:	e8 eb       	ldi	r30, 0xB8	; 184
    1a92:	f1 e0       	ldi	r31, 0x01	; 1
    1a94:	80 e3       	ldi	r24, 0x30	; 48
    1a96:	81 83       	std	Z+1, r24	; 0x01
						wate_time[0]++;
    1a98:	80 81       	ld	r24, Z
    1a9a:	8f 5f       	subi	r24, 0xFF	; 255
						if(wate_time[0]>=0x3a){
    1a9c:	8a 33       	cpi	r24, 0x3A	; 58
    1a9e:	18 f4       	brcc	.+6      	; 0x1aa6 <inc_wait_timer+0x7e>
				if(wate_time[3]>=0x36){
					wate_time[3]=0x30;
					wate_time[1]++;
					if(wate_time[1]>=0x3a){
						wate_time[1]=0x30;
						wate_time[0]++;
    1aa0:	80 93 b8 01 	sts	0x01B8, r24	; 0x8001b8 <wate_time>
    1aa4:	08 95       	ret
						if(wate_time[0]>=0x3a){
							wate_time[0]=0x30;
    1aa6:	80 e3       	ldi	r24, 0x30	; 48
    1aa8:	80 93 b8 01 	sts	0x01B8, r24	; 0x8001b8 <wate_time>
    1aac:	08 95       	ret

00001aae <inc_comp>:
		}
	}
}
//------------------------------------------------------------------------------------------------------------------
//static void int 
void inc_comp(timer* time){
    1aae:	bf 92       	push	r11
    1ab0:	cf 92       	push	r12
    1ab2:	df 92       	push	r13
    1ab4:	ef 92       	push	r14
    1ab6:	ff 92       	push	r15
    1ab8:	0f 93       	push	r16
    1aba:	1f 93       	push	r17
    1abc:	cf 93       	push	r28
    1abe:	df 93       	push	r29
    1ac0:	fc 01       	movw	r30, r24
	//inc
	time->string_time[7]++;
    1ac2:	84 89       	ldd	r24, Z+20	; 0x14
    1ac4:	8f 5f       	subi	r24, 0xFF	; 255
	if(time->string_time[7]>=0x3a){
    1ac6:	8a 33       	cpi	r24, 0x3A	; 58
    1ac8:	10 f4       	brcc	.+4      	; 0x1ace <inc_comp+0x20>
}
//------------------------------------------------------------------------------------------------------------------
//static void int 
void inc_comp(timer* time){
	//inc
	time->string_time[7]++;
    1aca:	84 8b       	std	Z+20, r24	; 0x14
    1acc:	2a c0       	rjmp	.+84     	; 0x1b22 <inc_comp+0x74>
	if(time->string_time[7]>=0x3a){
		time->string_time[7]=0x30;
    1ace:	80 e3       	ldi	r24, 0x30	; 48
    1ad0:	84 8b       	std	Z+20, r24	; 0x14
		time->string_time[6]++;
    1ad2:	83 89       	ldd	r24, Z+19	; 0x13
    1ad4:	8f 5f       	subi	r24, 0xFF	; 255
		if(time->string_time[6]>=0x36){
    1ad6:	86 33       	cpi	r24, 0x36	; 54
    1ad8:	10 f4       	brcc	.+4      	; 0x1ade <inc_comp+0x30>
void inc_comp(timer* time){
	//inc
	time->string_time[7]++;
	if(time->string_time[7]>=0x3a){
		time->string_time[7]=0x30;
		time->string_time[6]++;
    1ada:	83 8b       	std	Z+19, r24	; 0x13
    1adc:	22 c0       	rjmp	.+68     	; 0x1b22 <inc_comp+0x74>
		if(time->string_time[6]>=0x36){
			time->string_time[6]=0x30;
    1ade:	80 e3       	ldi	r24, 0x30	; 48
    1ae0:	83 8b       	std	Z+19, r24	; 0x13
			time->string_time[4]++;
    1ae2:	81 89       	ldd	r24, Z+17	; 0x11
    1ae4:	8f 5f       	subi	r24, 0xFF	; 255
			if(time->string_time[4]>=0x3a){
    1ae6:	8a 33       	cpi	r24, 0x3A	; 58
    1ae8:	10 f4       	brcc	.+4      	; 0x1aee <inc_comp+0x40>
	if(time->string_time[7]>=0x3a){
		time->string_time[7]=0x30;
		time->string_time[6]++;
		if(time->string_time[6]>=0x36){
			time->string_time[6]=0x30;
			time->string_time[4]++;
    1aea:	81 8b       	std	Z+17, r24	; 0x11
    1aec:	1a c0       	rjmp	.+52     	; 0x1b22 <inc_comp+0x74>
			if(time->string_time[4]>=0x3a){
				time->string_time[4]=0x30;
    1aee:	80 e3       	ldi	r24, 0x30	; 48
    1af0:	81 8b       	std	Z+17, r24	; 0x11
				time->string_time[3]++;
    1af2:	80 89       	ldd	r24, Z+16	; 0x10
    1af4:	8f 5f       	subi	r24, 0xFF	; 255
				if(time->string_time[3]>=0x36){
    1af6:	86 33       	cpi	r24, 0x36	; 54
    1af8:	10 f4       	brcc	.+4      	; 0x1afe <inc_comp+0x50>
		if(time->string_time[6]>=0x36){
			time->string_time[6]=0x30;
			time->string_time[4]++;
			if(time->string_time[4]>=0x3a){
				time->string_time[4]=0x30;
				time->string_time[3]++;
    1afa:	80 8b       	std	Z+16, r24	; 0x10
    1afc:	12 c0       	rjmp	.+36     	; 0x1b22 <inc_comp+0x74>
				if(time->string_time[3]>=0x36){
					time->string_time[3]=0x30;
    1afe:	80 e3       	ldi	r24, 0x30	; 48
    1b00:	80 8b       	std	Z+16, r24	; 0x10
					time->string_time[1]++;
    1b02:	86 85       	ldd	r24, Z+14	; 0x0e
    1b04:	8f 5f       	subi	r24, 0xFF	; 255
					if(time->string_time[1]>=0x3a){
    1b06:	8a 33       	cpi	r24, 0x3A	; 58
    1b08:	10 f4       	brcc	.+4      	; 0x1b0e <inc_comp+0x60>
			if(time->string_time[4]>=0x3a){
				time->string_time[4]=0x30;
				time->string_time[3]++;
				if(time->string_time[3]>=0x36){
					time->string_time[3]=0x30;
					time->string_time[1]++;
    1b0a:	86 87       	std	Z+14, r24	; 0x0e
    1b0c:	0a c0       	rjmp	.+20     	; 0x1b22 <inc_comp+0x74>
					if(time->string_time[1]>=0x3a){
						time->string_time[1]=0x30;
    1b0e:	80 e3       	ldi	r24, 0x30	; 48
    1b10:	86 87       	std	Z+14, r24	; 0x0e
						time->string_time[0]++;
    1b12:	85 85       	ldd	r24, Z+13	; 0x0d
    1b14:	8f 5f       	subi	r24, 0xFF	; 255
						if(time->string_time[0]>=0x3a){
    1b16:	8a 33       	cpi	r24, 0x3A	; 58
    1b18:	10 f4       	brcc	.+4      	; 0x1b1e <inc_comp+0x70>
				if(time->string_time[3]>=0x36){
					time->string_time[3]=0x30;
					time->string_time[1]++;
					if(time->string_time[1]>=0x3a){
						time->string_time[1]=0x30;
						time->string_time[0]++;
    1b1a:	85 87       	std	Z+13, r24	; 0x0d
    1b1c:	02 c0       	rjmp	.+4      	; 0x1b22 <inc_comp+0x74>
						if(time->string_time[0]>=0x3a){
							time->string_time[0]=0x30;
    1b1e:	80 e3       	ldi	r24, 0x30	; 48
    1b20:	85 87       	std	Z+13, r24	; 0x0d
				}
			}
		}
	}
	///compare  
	time->time_bin= 36000*(time->string_time[0]&0x0F)+3600*(time->string_time[1]&0x0F)+600*(time->string_time[3]&0x0F)+60*(time->string_time[4]&0x0F)+10*(time->string_time[6]&0x0F)+(time->string_time[7]&0x0F);
    1b22:	25 85       	ldd	r18, Z+13	; 0x0d
    1b24:	2f 70       	andi	r18, 0x0F	; 15
    1b26:	30 e0       	ldi	r19, 0x00	; 0
    1b28:	a0 ea       	ldi	r26, 0xA0	; 160
    1b2a:	bc e8       	ldi	r27, 0x8C	; 140
    1b2c:	0e 94 49 1a 	call	0x3492	; 0x3492 <__umulhisi3>
    1b30:	26 85       	ldd	r18, Z+14	; 0x0e
    1b32:	2f 70       	andi	r18, 0x0F	; 15
    1b34:	c0 e1       	ldi	r28, 0x10	; 16
    1b36:	de e0       	ldi	r29, 0x0E	; 14
    1b38:	2c 9f       	mul	r18, r28
    1b3a:	60 01       	movw	r12, r0
    1b3c:	2d 9f       	mul	r18, r29
    1b3e:	d0 0c       	add	r13, r0
    1b40:	11 24       	eor	r1, r1
    1b42:	0d 2c       	mov	r0, r13
    1b44:	00 0c       	add	r0, r0
    1b46:	ee 08       	sbc	r14, r14
    1b48:	ff 08       	sbc	r15, r15
    1b4a:	c6 0e       	add	r12, r22
    1b4c:	d7 1e       	adc	r13, r23
    1b4e:	e8 1e       	adc	r14, r24
    1b50:	f9 1e       	adc	r15, r25
    1b52:	20 89       	ldd	r18, Z+16	; 0x10
    1b54:	2f 70       	andi	r18, 0x0F	; 15
    1b56:	48 e5       	ldi	r20, 0x58	; 88
    1b58:	52 e0       	ldi	r21, 0x02	; 2
    1b5a:	24 9f       	mul	r18, r20
    1b5c:	c0 01       	movw	r24, r0
    1b5e:	25 9f       	mul	r18, r21
    1b60:	90 0d       	add	r25, r0
    1b62:	11 24       	eor	r1, r1
    1b64:	09 2e       	mov	r0, r25
    1b66:	00 0c       	add	r0, r0
    1b68:	aa 0b       	sbc	r26, r26
    1b6a:	bb 0b       	sbc	r27, r27
    1b6c:	c8 0e       	add	r12, r24
    1b6e:	d9 1e       	adc	r13, r25
    1b70:	ea 1e       	adc	r14, r26
    1b72:	fb 1e       	adc	r15, r27
    1b74:	81 89       	ldd	r24, Z+17	; 0x11
    1b76:	8f 70       	andi	r24, 0x0F	; 15
    1b78:	0f 2e       	mov	r0, r31
    1b7a:	fc e3       	ldi	r31, 0x3C	; 60
    1b7c:	bf 2e       	mov	r11, r31
    1b7e:	f0 2d       	mov	r31, r0
    1b80:	b8 9e       	mul	r11, r24
    1b82:	c0 01       	movw	r24, r0
    1b84:	11 24       	eor	r1, r1
    1b86:	09 2e       	mov	r0, r25
    1b88:	00 0c       	add	r0, r0
    1b8a:	aa 0b       	sbc	r26, r26
    1b8c:	bb 0b       	sbc	r27, r27
    1b8e:	c8 0e       	add	r12, r24
    1b90:	d9 1e       	adc	r13, r25
    1b92:	ea 1e       	adc	r14, r26
    1b94:	fb 1e       	adc	r15, r27
    1b96:	23 89       	ldd	r18, Z+19	; 0x13
    1b98:	2f 70       	andi	r18, 0x0F	; 15
    1b9a:	30 e0       	ldi	r19, 0x00	; 0
    1b9c:	89 01       	movw	r16, r18
    1b9e:	00 0f       	add	r16, r16
    1ba0:	11 1f       	adc	r17, r17
    1ba2:	22 0f       	add	r18, r18
    1ba4:	33 1f       	adc	r19, r19
    1ba6:	22 0f       	add	r18, r18
    1ba8:	33 1f       	adc	r19, r19
    1baa:	22 0f       	add	r18, r18
    1bac:	33 1f       	adc	r19, r19
    1bae:	02 0f       	add	r16, r18
    1bb0:	13 1f       	adc	r17, r19
    1bb2:	01 2e       	mov	r0, r17
    1bb4:	00 0c       	add	r0, r0
    1bb6:	22 0b       	sbc	r18, r18
    1bb8:	33 0b       	sbc	r19, r19
    1bba:	c0 0e       	add	r12, r16
    1bbc:	d1 1e       	adc	r13, r17
    1bbe:	e2 1e       	adc	r14, r18
    1bc0:	f3 1e       	adc	r15, r19
    1bc2:	84 89       	ldd	r24, Z+20	; 0x14
    1bc4:	8f 70       	andi	r24, 0x0F	; 15
    1bc6:	c8 0e       	add	r12, r24
    1bc8:	d1 1c       	adc	r13, r1
    1bca:	e1 1c       	adc	r14, r1
    1bcc:	f1 1c       	adc	r15, r1
    1bce:	c6 8a       	std	Z+22, r12	; 0x16
    1bd0:	d7 8a       	std	Z+23, r13	; 0x17
    1bd2:	e0 8e       	std	Z+24, r14	; 0x18
    1bd4:	f1 8e       	std	Z+25, r15	; 0x19
	time->setp_time_bin= 36000*(time->string_setp_time[0]&0x0F)+3600*(time->string_setp_time[1]&0x0F)+600*(time->string_setp_time[3]&0x0F)+60*(time->string_setp_time[4]&0x0F)+10*(time->string_setp_time[6]&0x0F)+(time->string_setp_time[7]&0x0F);
    1bd6:	20 81       	ld	r18, Z
    1bd8:	2f 70       	andi	r18, 0x0F	; 15
    1bda:	30 e0       	ldi	r19, 0x00	; 0
    1bdc:	a0 ea       	ldi	r26, 0xA0	; 160
    1bde:	bc e8       	ldi	r27, 0x8C	; 140
    1be0:	0e 94 49 1a 	call	0x3492	; 0x3492 <__umulhisi3>
    1be4:	21 81       	ldd	r18, Z+1	; 0x01
    1be6:	2f 70       	andi	r18, 0x0F	; 15
    1be8:	2c 9f       	mul	r18, r28
    1bea:	d0 01       	movw	r26, r0
    1bec:	2d 9f       	mul	r18, r29
    1bee:	b0 0d       	add	r27, r0
    1bf0:	11 24       	eor	r1, r1
    1bf2:	8d 01       	movw	r16, r26
    1bf4:	bb 0f       	add	r27, r27
    1bf6:	22 0b       	sbc	r18, r18
    1bf8:	33 0b       	sbc	r19, r19
    1bfa:	dc 01       	movw	r26, r24
    1bfc:	cb 01       	movw	r24, r22
    1bfe:	80 0f       	add	r24, r16
    1c00:	91 1f       	adc	r25, r17
    1c02:	a2 1f       	adc	r26, r18
    1c04:	b3 1f       	adc	r27, r19
    1c06:	63 81       	ldd	r22, Z+3	; 0x03
    1c08:	6f 70       	andi	r22, 0x0F	; 15
    1c0a:	64 9f       	mul	r22, r20
    1c0c:	90 01       	movw	r18, r0
    1c0e:	65 9f       	mul	r22, r21
    1c10:	30 0d       	add	r19, r0
    1c12:	11 24       	eor	r1, r1
    1c14:	a9 01       	movw	r20, r18
    1c16:	33 0f       	add	r19, r19
    1c18:	66 0b       	sbc	r22, r22
    1c1a:	77 0b       	sbc	r23, r23
    1c1c:	84 0f       	add	r24, r20
    1c1e:	95 1f       	adc	r25, r21
    1c20:	a6 1f       	adc	r26, r22
    1c22:	b7 1f       	adc	r27, r23
    1c24:	44 81       	ldd	r20, Z+4	; 0x04
    1c26:	4f 70       	andi	r20, 0x0F	; 15
    1c28:	b4 9e       	mul	r11, r20
    1c2a:	a0 01       	movw	r20, r0
    1c2c:	11 24       	eor	r1, r1
    1c2e:	05 2e       	mov	r0, r21
    1c30:	00 0c       	add	r0, r0
    1c32:	66 0b       	sbc	r22, r22
    1c34:	77 0b       	sbc	r23, r23
    1c36:	84 0f       	add	r24, r20
    1c38:	95 1f       	adc	r25, r21
    1c3a:	a6 1f       	adc	r26, r22
    1c3c:	b7 1f       	adc	r27, r23
    1c3e:	26 81       	ldd	r18, Z+6	; 0x06
    1c40:	2f 70       	andi	r18, 0x0F	; 15
    1c42:	30 e0       	ldi	r19, 0x00	; 0
    1c44:	a9 01       	movw	r20, r18
    1c46:	44 0f       	add	r20, r20
    1c48:	55 1f       	adc	r21, r21
    1c4a:	22 0f       	add	r18, r18
    1c4c:	33 1f       	adc	r19, r19
    1c4e:	22 0f       	add	r18, r18
    1c50:	33 1f       	adc	r19, r19
    1c52:	22 0f       	add	r18, r18
    1c54:	33 1f       	adc	r19, r19
    1c56:	42 0f       	add	r20, r18
    1c58:	53 1f       	adc	r21, r19
    1c5a:	05 2e       	mov	r0, r21
    1c5c:	00 0c       	add	r0, r0
    1c5e:	66 0b       	sbc	r22, r22
    1c60:	77 0b       	sbc	r23, r23
    1c62:	84 0f       	add	r24, r20
    1c64:	95 1f       	adc	r25, r21
    1c66:	a6 1f       	adc	r26, r22
    1c68:	b7 1f       	adc	r27, r23
    1c6a:	27 81       	ldd	r18, Z+7	; 0x07
    1c6c:	2f 70       	andi	r18, 0x0F	; 15
    1c6e:	82 0f       	add	r24, r18
    1c70:	91 1d       	adc	r25, r1
    1c72:	a1 1d       	adc	r26, r1
    1c74:	b1 1d       	adc	r27, r1
    1c76:	81 87       	std	Z+9, r24	; 0x09
    1c78:	92 87       	std	Z+10, r25	; 0x0a
    1c7a:	a3 87       	std	Z+11, r26	; 0x0b
    1c7c:	b4 87       	std	Z+12, r27	; 0x0c
	
		if (time->time_bin >= time->setp_time_bin)
    1c7e:	c8 16       	cp	r12, r24
    1c80:	d9 06       	cpc	r13, r25
    1c82:	ea 06       	cpc	r14, r26
    1c84:	fb 06       	cpc	r15, r27
    1c86:	10 f0       	brcs	.+4      	; 0x1c8c <inc_comp+0x1de>
		{
			time->status=EVENT;
    1c88:	82 e0       	ldi	r24, 0x02	; 2
    1c8a:	82 8f       	std	Z+26, r24	; 0x1a
		} 
		else
		{
//			return 0;
		}
}
    1c8c:	df 91       	pop	r29
    1c8e:	cf 91       	pop	r28
    1c90:	1f 91       	pop	r17
    1c92:	0f 91       	pop	r16
    1c94:	ff 90       	pop	r15
    1c96:	ef 90       	pop	r14
    1c98:	df 90       	pop	r13
    1c9a:	cf 90       	pop	r12
    1c9c:	bf 90       	pop	r11
    1c9e:	08 95       	ret

00001ca0 <__vector_4>:
	//       (sleep mode):	set_sleep_mode(SLEEP_MODE_PWR_SAVE);
	//    :	sleep_enable();
}
//------------------------------------------------------------------------------------------------------------------
ISR(TIMER2_OVF_vect)
{
    1ca0:	1f 92       	push	r1
    1ca2:	0f 92       	push	r0
    1ca4:	0f b6       	in	r0, 0x3f	; 63
    1ca6:	0f 92       	push	r0
    1ca8:	11 24       	eor	r1, r1
    1caa:	2f 93       	push	r18
    1cac:	3f 93       	push	r19
    1cae:	4f 93       	push	r20
    1cb0:	5f 93       	push	r21
    1cb2:	6f 93       	push	r22
    1cb4:	7f 93       	push	r23
    1cb6:	8f 93       	push	r24
    1cb8:	9f 93       	push	r25
    1cba:	af 93       	push	r26
    1cbc:	bf 93       	push	r27
    1cbe:	ef 93       	push	r30
    1cc0:	ff 93       	push	r31
static uint8_t interval_meas_bat=0;
static uint8_t interval_meas_temp=0;	
	//1 sec
	//--------------------------------------
	cnt_light++;
    1cc2:	80 91 1b 01 	lds	r24, 0x011B	; 0x80011b <cnt_light>
    1cc6:	8f 5f       	subi	r24, 0xFF	; 255
    1cc8:	80 93 1b 01 	sts	0x011B, r24	; 0x80011b <cnt_light>
	if(cnt_light>=TIME_LIGHT_OFF){
    1ccc:	80 91 1b 01 	lds	r24, 0x011B	; 0x80011b <cnt_light>
    1cd0:	80 3f       	cpi	r24, 0xF0	; 240
    1cd2:	20 f0       	brcs	.+8      	; 0x1cdc <__vector_4+0x3c>
		OFF_LCD_BACKLIGHT;
    1cd4:	c7 98       	cbi	0x18, 7	; 24
		cnt_light=TIME_LIGHT_OFF;
    1cd6:	80 ef       	ldi	r24, 0xF0	; 240
    1cd8:	80 93 1b 01 	sts	0x011B, r24	; 0x80011b <cnt_light>
	}
	//--------------------------------------
	interval_meas_bat++;
	if(interval_meas_bat>=INTERVAL_MEAS_BAT){
    1cdc:	80 91 0e 01 	lds	r24, 0x010E	; 0x80010e <interval_meas_bat.2381>
    1ce0:	8f 3f       	cpi	r24, 0xFF	; 255
    1ce2:	19 f4       	brne	.+6      	; 0x1cea <__vector_4+0x4a>
	if(cnt_light>=TIME_LIGHT_OFF){
		OFF_LCD_BACKLIGHT;
		cnt_light=TIME_LIGHT_OFF;
	}
	//--------------------------------------
	interval_meas_bat++;
    1ce4:	10 92 0e 01 	sts	0x010E, r1	; 0x80010e <interval_meas_bat.2381>
    1ce8:	05 c0       	rjmp	.+10     	; 0x1cf4 <__vector_4+0x54>
	if(interval_meas_bat>=INTERVAL_MEAS_BAT){
		interval_meas_bat=0;
    1cea:	10 92 0e 01 	sts	0x010E, r1	; 0x80010e <interval_meas_bat.2381>
		flag_meas_bat=1;
    1cee:	81 e0       	ldi	r24, 0x01	; 1
    1cf0:	80 93 1e 01 	sts	0x011E, r24	; 0x80011e <flag_meas_bat>
	}
	interval_meas_temp++;
    1cf4:	80 91 0d 01 	lds	r24, 0x010D	; 0x80010d <interval_meas_temp.2382>
    1cf8:	8f 5f       	subi	r24, 0xFF	; 255
	if(interval_meas_temp>=INTERVAL_MEAS_TEMP){
    1cfa:	82 30       	cpi	r24, 0x02	; 2
    1cfc:	18 f4       	brcc	.+6      	; 0x1d04 <__vector_4+0x64>
	interval_meas_bat++;
	if(interval_meas_bat>=INTERVAL_MEAS_BAT){
		interval_meas_bat=0;
		flag_meas_bat=1;
	}
	interval_meas_temp++;
    1cfe:	80 93 0d 01 	sts	0x010D, r24	; 0x80010d <interval_meas_temp.2382>
    1d02:	05 c0       	rjmp	.+10     	; 0x1d0e <__vector_4+0x6e>
	if(interval_meas_temp>=INTERVAL_MEAS_TEMP){
		interval_meas_temp=0;
    1d04:	10 92 0d 01 	sts	0x010D, r1	; 0x80010d <interval_meas_temp.2382>
		flag_meas_temp=1;
    1d08:	81 e0       	ldi	r24, 0x01	; 1
    1d0a:	80 93 1d 01 	sts	0x011D, r24	; 0x80011d <flag_meas_temp>
	}
	
	//timer
	if(time_work_bat.status==RUNING){
    1d0e:	80 91 94 01 	lds	r24, 0x0194	; 0x800194 <time_work_bat+0x1a>
    1d12:	81 30       	cpi	r24, 0x01	; 1
    1d14:	21 f4       	brne	.+8      	; 0x1d1e <__vector_4+0x7e>
		/*if(inc_comp(&time_work_bat)){
			time_work_bat.status=EVENT;
		}*/
		inc_comp(&time_work_bat);
    1d16:	8a e7       	ldi	r24, 0x7A	; 122
    1d18:	91 e0       	ldi	r25, 0x01	; 1
    1d1a:	0e 94 57 0d 	call	0x1aae	; 0x1aae <inc_comp>
	}
	if(time_rest_bat.status==RUNING){
    1d1e:	80 91 5a 01 	lds	r24, 0x015A	; 0x80015a <time_rest_bat+0x1a>
    1d22:	81 30       	cpi	r24, 0x01	; 1
    1d24:	21 f4       	brne	.+8      	; 0x1d2e <__vector_4+0x8e>
		/*if(inc_comp(&time_rest_bat)){
			time_rest_bat.status=EVENT;
		}*/
		inc_comp(&time_rest_bat);		
    1d26:	80 e4       	ldi	r24, 0x40	; 64
    1d28:	91 e0       	ldi	r25, 0x01	; 1
    1d2a:	0e 94 57 0d 	call	0x1aae	; 0x1aae <inc_comp>
	}
	if(time_work_temperat.status==RUNING){
    1d2e:	80 91 3a 01 	lds	r24, 0x013A	; 0x80013a <time_work_temperat+0x1a>
    1d32:	81 30       	cpi	r24, 0x01	; 1
    1d34:	21 f4       	brne	.+8      	; 0x1d3e <__vector_4+0x9e>
		/*if(inc_comp(&time_work_temperat)){
			time_work_temperat.status=EVENT;
		}*/
		inc_comp(&time_work_temperat);
    1d36:	80 e2       	ldi	r24, 0x20	; 32
    1d38:	91 e0       	ldi	r25, 0x01	; 1
    1d3a:	0e 94 57 0d 	call	0x1aae	; 0x1aae <inc_comp>
	}
	if(time_rest_temperat.status==RUNING){
    1d3e:	80 91 b0 01 	lds	r24, 0x01B0	; 0x8001b0 <time_rest_temperat+0x1a>
    1d42:	81 30       	cpi	r24, 0x01	; 1
    1d44:	21 f4       	brne	.+8      	; 0x1d4e <__vector_4+0xae>
		/*if(inc_comp(&time_rest_temperat)){
			time_rest_temperat.status=EVENT;
		}*/
		inc_comp(&time_rest_temperat);
    1d46:	86 e9       	ldi	r24, 0x96	; 150
    1d48:	91 e0       	ldi	r25, 0x01	; 1
    1d4a:	0e 94 57 0d 	call	0x1aae	; 0x1aae <inc_comp>
	}
	if (state==WAIT){
    1d4e:	80 91 19 01 	lds	r24, 0x0119	; 0x800119 <state>
    1d52:	81 30       	cpi	r24, 0x01	; 1
    1d54:	11 f4       	brne	.+4      	; 0x1d5a <__vector_4+0xba>
	inc_wait_timer();	
    1d56:	0e 94 14 0d 	call	0x1a28	; 0x1a28 <inc_wait_timer>
	}
}
    1d5a:	ff 91       	pop	r31
    1d5c:	ef 91       	pop	r30
    1d5e:	bf 91       	pop	r27
    1d60:	af 91       	pop	r26
    1d62:	9f 91       	pop	r25
    1d64:	8f 91       	pop	r24
    1d66:	7f 91       	pop	r23
    1d68:	6f 91       	pop	r22
    1d6a:	5f 91       	pop	r21
    1d6c:	4f 91       	pop	r20
    1d6e:	3f 91       	pop	r19
    1d70:	2f 91       	pop	r18
    1d72:	0f 90       	pop	r0
    1d74:	0f be       	out	0x3f, r0	; 63
    1d76:	0f 90       	pop	r0
    1d78:	1f 90       	pop	r1
    1d7a:	18 95       	reti

00001d7c <build_menu_setpoint_disabled>:
//------------------------------------------------------------------------------------------------------------------


void build_menu_setpoint_disabled(void)
{
	lcd_1_strin();
    1d7c:	0e 94 19 1a 	call	0x3432	; 0x3432 <lcd_1_strin>
	printf_P(PSTR("    Setpoint    "));
    1d80:	89 ec       	ldi	r24, 0xC9	; 201
    1d82:	92 e0       	ldi	r25, 0x02	; 2
    1d84:	9f 93       	push	r25
    1d86:	8f 93       	push	r24
    1d88:	0e 94 81 1a 	call	0x3502	; 0x3502 <printf_P>
	lcd_2_strin();
    1d8c:	0e 94 20 1a 	call	0x3440	; 0x3440 <lcd_2_strin>
	printf_P(PSTR("    disabled!   "));
    1d90:	88 eb       	ldi	r24, 0xB8	; 184
    1d92:	92 e0       	ldi	r25, 0x02	; 2
    1d94:	9f 93       	push	r25
    1d96:	8f 93       	push	r24
    1d98:	0e 94 81 1a 	call	0x3502	; 0x3502 <printf_P>
	lcd_1_strin();	
    1d9c:	0e 94 19 1a 	call	0x3432	; 0x3432 <lcd_1_strin>
				
}
    1da0:	0f 90       	pop	r0
    1da2:	0f 90       	pop	r0
    1da4:	0f 90       	pop	r0
    1da6:	0f 90       	pop	r0
    1da8:	08 95       	ret

00001daa <meas_bat>:
	
}
//------------------------------------------------
//!!static inline 
//static 
void meas_bat(void){
    1daa:	cf 93       	push	r28
    1dac:	df 93       	push	r29
	if(enable_battery_voltage){
    1dae:	80 91 3d 01 	lds	r24, 0x013D	; 0x80013d <enable_battery_voltage>
    1db2:	88 23       	and	r24, r24
    1db4:	09 f4       	brne	.+2      	; 0x1db8 <meas_bat+0xe>
    1db6:	6b c0       	rjmp	.+214    	; 0x1e8e <meas_bat+0xe4>
	uint16_t adcval;
	uint8_t nn;
	//start convert
	nn=16;
	adcval = 0;
	ADMUX=0xc0+channelADC;
    1db8:	87 ec       	ldi	r24, 0xC7	; 199
    1dba:	87 b9       	out	0x07, r24	; 7
    1dbc:	80 e1       	ldi	r24, 0x10	; 16
    1dbe:	90 e0       	ldi	r25, 0x00	; 0
	//N=N&0x0f;
	uint16_t adcval;
	uint8_t nn;
	//start convert
	nn=16;
	adcval = 0;
    1dc0:	20 e0       	ldi	r18, 0x00	; 0
    1dc2:	30 e0       	ldi	r19, 0x00	; 0
	ADMUX=0xc0+channelADC;
	//ADMUX=0x40+channelADC;
	for	(uint16_t i=0;i<nn;i++)	{
		ADCSRA = _BV(ADEN)|_BV(ADPS0)|_BV(ADPS1)|_BV(ADPS2);
    1dc4:	67 e8       	ldi	r22, 0x87	; 135
    1dc6:	66 b9       	out	0x06, r22	; 6
		ADCSRA |= _BV(ADSC);
    1dc8:	36 9a       	sbi	0x06, 6	; 6
		loop_until_bit_is_clear(ADCSRA,ADSC);
    1dca:	36 99       	sbic	0x06, 6	; 6
    1dcc:	fe cf       	rjmp	.-4      	; 0x1dca <meas_bat+0x20>
		adcval += ADCW;
    1dce:	44 b1       	in	r20, 0x04	; 4
    1dd0:	55 b1       	in	r21, 0x05	; 5
    1dd2:	24 0f       	add	r18, r20
    1dd4:	35 1f       	adc	r19, r21
    1dd6:	01 97       	sbiw	r24, 0x01	; 1
	//start convert
	nn=16;
	adcval = 0;
	ADMUX=0xc0+channelADC;
	//ADMUX=0x40+channelADC;
	for	(uint16_t i=0;i<nn;i++)	{
    1dd8:	b1 f7       	brne	.-20     	; 0x1dc6 <meas_bat+0x1c>
//static 
void meas_bat(void){
	if(enable_battery_voltage){
uint32_t	val=((uint32_t)meas_ADC(7)*(uint32_t)battery_voltage_coefficient)/1000;
	//!!battery_voltage.current_value_bin=(battery_voltage.current_value_bin+(uint16_t)val)/2;
	battery_voltage_current_value_bin=(uint16_t)val;
    1dda:	32 95       	swap	r19
    1ddc:	22 95       	swap	r18
    1dde:	2f 70       	andi	r18, 0x0F	; 15
    1de0:	23 27       	eor	r18, r19
    1de2:	3f 70       	andi	r19, 0x0F	; 15
    1de4:	23 27       	eor	r18, r19
    1de6:	a0 91 3b 01 	lds	r26, 0x013B	; 0x80013b <battery_voltage_coefficient>
    1dea:	b0 91 3c 01 	lds	r27, 0x013C	; 0x80013c <battery_voltage_coefficient+0x1>
    1dee:	0e 94 49 1a 	call	0x3492	; 0x3492 <__umulhisi3>
    1df2:	28 ee       	ldi	r18, 0xE8	; 232
    1df4:	33 e0       	ldi	r19, 0x03	; 3
    1df6:	40 e0       	ldi	r20, 0x00	; 0
    1df8:	50 e0       	ldi	r21, 0x00	; 0
    1dfa:	0e 94 27 1a 	call	0x344e	; 0x344e <__udivmodsi4>
	if(battery_voltage_current_value_bin>=999) battery_voltage_current_value_bin=999;
    1dfe:	27 3e       	cpi	r18, 0xE7	; 231
    1e00:	83 e0       	ldi	r24, 0x03	; 3
    1e02:	38 07       	cpc	r19, r24
    1e04:	28 f4       	brcc	.+10     	; 0x1e10 <meas_bat+0x66>
//static 
void meas_bat(void){
	if(enable_battery_voltage){
uint32_t	val=((uint32_t)meas_ADC(7)*(uint32_t)battery_voltage_coefficient)/1000;
	//!!battery_voltage.current_value_bin=(battery_voltage.current_value_bin+(uint16_t)val)/2;
	battery_voltage_current_value_bin=(uint16_t)val;
    1e06:	30 93 3f 01 	sts	0x013F, r19	; 0x80013f <battery_voltage_current_value_bin+0x1>
    1e0a:	20 93 3e 01 	sts	0x013E, r18	; 0x80013e <battery_voltage_current_value_bin>
    1e0e:	06 c0       	rjmp	.+12     	; 0x1e1c <meas_bat+0x72>
	if(battery_voltage_current_value_bin>=999) battery_voltage_current_value_bin=999;
    1e10:	87 ee       	ldi	r24, 0xE7	; 231
    1e12:	93 e0       	ldi	r25, 0x03	; 3
    1e14:	90 93 3f 01 	sts	0x013F, r25	; 0x80013f <battery_voltage_current_value_bin+0x1>
    1e18:	80 93 3e 01 	sts	0x013E, r24	; 0x80013e <battery_voltage_current_value_bin>
	
	battery_voltage_string_current_value[0] = (battery_voltage_current_value_bin/100);
    1e1c:	40 91 3e 01 	lds	r20, 0x013E	; 0x80013e <battery_voltage_current_value_bin>
    1e20:	50 91 3f 01 	lds	r21, 0x013F	; 0x80013f <battery_voltage_current_value_bin+0x1>
    1e24:	9a 01       	movw	r18, r20
    1e26:	36 95       	lsr	r19
    1e28:	27 95       	ror	r18
    1e2a:	36 95       	lsr	r19
    1e2c:	27 95       	ror	r18
    1e2e:	ab e7       	ldi	r26, 0x7B	; 123
    1e30:	b4 e1       	ldi	r27, 0x14	; 20
    1e32:	0e 94 49 1a 	call	0x3492	; 0x3492 <__umulhisi3>
    1e36:	ec 01       	movw	r28, r24
    1e38:	d6 95       	lsr	r29
    1e3a:	c7 95       	ror	r28
	battery_voltage_string_current_value[1] = ((battery_voltage_current_value_bin-(battery_voltage_string_current_value[0]*100))/10);
    1e3c:	9a 01       	movw	r18, r20
    1e3e:	94 e6       	ldi	r25, 0x64	; 100
    1e40:	c9 9f       	mul	r28, r25
    1e42:	20 19       	sub	r18, r0
    1e44:	31 09       	sbc	r19, r1
    1e46:	11 24       	eor	r1, r1
    1e48:	ad ec       	ldi	r26, 0xCD	; 205
    1e4a:	bc ec       	ldi	r27, 0xCC	; 204
    1e4c:	0e 94 49 1a 	call	0x3492	; 0x3492 <__umulhisi3>
    1e50:	96 95       	lsr	r25
    1e52:	87 95       	ror	r24
    1e54:	96 95       	lsr	r25
    1e56:	87 95       	ror	r24
    1e58:	96 95       	lsr	r25
    1e5a:	87 95       	ror	r24
	battery_voltage_string_current_value[2] = 0x2e;
    1e5c:	e1 ec       	ldi	r30, 0xC1	; 193
    1e5e:	f1 e0       	ldi	r31, 0x01	; 1
    1e60:	9e e2       	ldi	r25, 0x2E	; 46
    1e62:	92 83       	std	Z+2, r25	; 0x02
	battery_voltage_string_current_value[3] = (battery_voltage_current_value_bin-((battery_voltage_string_current_value[0]*100)+(battery_voltage_string_current_value[1]*10)));
	battery_voltage_string_current_value[4] = 0x00;	
    1e64:	14 82       	std	Z+4, r1	; 0x04

	battery_voltage_string_current_value[0] |=0x30;
    1e66:	9c 2f       	mov	r25, r28
    1e68:	90 63       	ori	r25, 0x30	; 48
    1e6a:	90 83       	st	Z, r25
	battery_voltage_string_current_value[1] |=0x30;
    1e6c:	98 2f       	mov	r25, r24
    1e6e:	90 63       	ori	r25, 0x30	; 48
    1e70:	91 83       	std	Z+1, r25	; 0x01
	battery_voltage_string_current_value[2] = 0x2e;
	battery_voltage_string_current_value[3] |=0x30;
    1e72:	24 e6       	ldi	r18, 0x64	; 100
    1e74:	c2 9f       	mul	r28, r18
    1e76:	40 19       	sub	r20, r0
    1e78:	11 24       	eor	r1, r1
    1e7a:	88 0f       	add	r24, r24
    1e7c:	98 2f       	mov	r25, r24
    1e7e:	99 0f       	add	r25, r25
    1e80:	99 0f       	add	r25, r25
    1e82:	89 0f       	add	r24, r25
    1e84:	48 1b       	sub	r20, r24
    1e86:	84 2f       	mov	r24, r20
    1e88:	80 63       	ori	r24, 0x30	; 48
    1e8a:	83 83       	std	Z+3, r24	; 0x03
    1e8c:	06 c0       	rjmp	.+12     	; 0x1e9a <meas_bat+0xf0>
	}
	else{
			battery_voltage_string_current_value[0] ='-';
    1e8e:	e1 ec       	ldi	r30, 0xC1	; 193
    1e90:	f1 e0       	ldi	r31, 0x01	; 1
    1e92:	8d e2       	ldi	r24, 0x2D	; 45
    1e94:	80 83       	st	Z, r24
			battery_voltage_string_current_value[1] ='-';
    1e96:	81 83       	std	Z+1, r24	; 0x01
			battery_voltage_string_current_value[3] ='-';
    1e98:	83 83       	std	Z+3, r24	; 0x03
	}
}
    1e9a:	df 91       	pop	r29
    1e9c:	cf 91       	pop	r28
    1e9e:	08 95       	ret

00001ea0 <test_temperature>:
}
//------------------------------------------------------------------------------------------------------------------
//1 - temperature OK 0 - not OK
uint8_t test_temperature(void){
//--------------------------------------------------------------------------
if((temperature.enable_low==0)&&(temperature.enable_hight==0)){
    1ea0:	80 91 5b 01 	lds	r24, 0x015B	; 0x80015b <temperature>
    1ea4:	81 11       	cpse	r24, r1
    1ea6:	05 c0       	rjmp	.+10     	; 0x1eb2 <test_temperature+0x12>
    1ea8:	80 91 5c 01 	lds	r24, 0x015C	; 0x80015c <temperature+0x1>
    1eac:	81 11       	cpse	r24, r1
    1eae:	19 c0       	rjmp	.+50     	; 0x1ee2 <test_temperature+0x42>
    1eb0:	3c c0       	rjmp	.+120    	; 0x1f2a <test_temperature+0x8a>
	return 1;
}
	
//--------------------------------------------------------------------------		
if((temperature.enable_low==1)&&(temperature.enable_hight==0)){	
    1eb2:	81 30       	cpi	r24, 0x01	; 1
    1eb4:	e1 f5       	brne	.+120    	; 0x1f2e <test_temperature+0x8e>
    1eb6:	90 91 5c 01 	lds	r25, 0x015C	; 0x80015c <temperature+0x1>
    1eba:	91 11       	cpse	r25, r1
    1ebc:	21 c0       	rjmp	.+66     	; 0x1f00 <test_temperature+0x60>
	if(temperature.sig==1) return 0;
    1ebe:	20 91 78 01 	lds	r18, 0x0178	; 0x800178 <temperature+0x1d>
    1ec2:	30 91 79 01 	lds	r19, 0x0179	; 0x800179 <temperature+0x1e>
    1ec6:	21 30       	cpi	r18, 0x01	; 1
    1ec8:	31 05       	cpc	r19, r1
    1eca:	99 f1       	breq	.+102    	; 0x1f32 <test_temperature+0x92>
	if (temperature.current_value_bin>temperature.setp_value_low_bin)
    1ecc:	eb e5       	ldi	r30, 0x5B	; 91
    1ece:	f1 e0       	ldi	r31, 0x01	; 1
//------------------------------------------------------------------------------------------------------------------
//1 - temperature OK 0 - not OK
uint8_t test_temperature(void){
//--------------------------------------------------------------------------
if((temperature.enable_low==0)&&(temperature.enable_hight==0)){
	return 1;
    1ed0:	43 8d       	ldd	r20, Z+27	; 0x1b
    1ed2:	54 8d       	ldd	r21, Z+28	; 0x1c
    1ed4:	22 89       	ldd	r18, Z+18	; 0x12
    1ed6:	33 89       	ldd	r19, Z+19	; 0x13
    1ed8:	24 17       	cp	r18, r20
    1eda:	35 07       	cpc	r19, r21
    1edc:	78 f1       	brcs	.+94     	; 0x1f3c <test_temperature+0x9c>
    1ede:	80 e0       	ldi	r24, 0x00	; 0
    1ee0:	08 95       	ret
	{
		return 0;
	}
}
//--------------------------------------------------------------------------
if((temperature.enable_low==0)&&(temperature.enable_hight==1)){	
    1ee2:	80 91 5c 01 	lds	r24, 0x015C	; 0x80015c <temperature+0x1>
    1ee6:	81 30       	cpi	r24, 0x01	; 1
    1ee8:	31 f5       	brne	.+76     	; 0x1f36 <test_temperature+0x96>
	if(temperature.current_value_bin<temperature.setp_value_hight_bin)
    1eea:	eb e5       	ldi	r30, 0x5B	; 91
    1eec:	f1 e0       	ldi	r31, 0x01	; 1
//------------------------------------------------------------------------------------------------------------------
//1 - temperature OK 0 - not OK
uint8_t test_temperature(void){
//--------------------------------------------------------------------------
if((temperature.enable_low==0)&&(temperature.enable_hight==0)){
	return 1;
    1eee:	43 8d       	ldd	r20, Z+27	; 0x1b
    1ef0:	54 8d       	ldd	r21, Z+28	; 0x1c
    1ef2:	21 85       	ldd	r18, Z+9	; 0x09
    1ef4:	32 85       	ldd	r19, Z+10	; 0x0a
    1ef6:	42 17       	cp	r20, r18
    1ef8:	53 07       	cpc	r21, r19
    1efa:	00 f1       	brcs	.+64     	; 0x1f3c <test_temperature+0x9c>
    1efc:	80 e0       	ldi	r24, 0x00	; 0
    1efe:	08 95       	ret
	{
		return 0;
	}
}
//--------------------------------------------------------------------------
if((temperature.enable_low==1)&&(temperature.enable_hight==1)){
    1f00:	91 30       	cpi	r25, 0x01	; 1
    1f02:	e1 f4       	brne	.+56     	; 0x1f3c <test_temperature+0x9c>


if(temperature.current_value_bin<temperature.setp_value_hight_bin)
    1f04:	eb e5       	ldi	r30, 0x5B	; 91
    1f06:	f1 e0       	ldi	r31, 0x01	; 1
    1f08:	23 8d       	ldd	r18, Z+27	; 0x1b
    1f0a:	34 8d       	ldd	r19, Z+28	; 0x1c
    1f0c:	81 85       	ldd	r24, Z+9	; 0x09
    1f0e:	92 85       	ldd	r25, Z+10	; 0x0a
    1f10:	28 17       	cp	r18, r24
    1f12:	39 07       	cpc	r19, r25
    1f14:	90 f4       	brcc	.+36     	; 0x1f3a <test_temperature+0x9a>
//------------------------------------------------------------------------------------------------------------------
//1 - temperature OK 0 - not OK
uint8_t test_temperature(void){
//--------------------------------------------------------------------------
if((temperature.enable_low==0)&&(temperature.enable_hight==0)){
	return 1;
    1f16:	81 e0       	ldi	r24, 0x01	; 1
    1f18:	40 91 6d 01 	lds	r20, 0x016D	; 0x80016d <temperature+0x12>
    1f1c:	50 91 6e 01 	lds	r21, 0x016E	; 0x80016e <temperature+0x13>
    1f20:	42 17       	cp	r20, r18
    1f22:	53 07       	cpc	r21, r19
    1f24:	58 f0       	brcs	.+22     	; 0x1f3c <test_temperature+0x9c>
    1f26:	80 e0       	ldi	r24, 0x00	; 0
    1f28:	08 95       	ret
    1f2a:	81 e0       	ldi	r24, 0x01	; 1
    1f2c:	08 95       	ret
}


	
//	
return 1;	
    1f2e:	81 e0       	ldi	r24, 0x01	; 1
    1f30:	08 95       	ret
	return 1;
}
	
//--------------------------------------------------------------------------		
if((temperature.enable_low==1)&&(temperature.enable_hight==0)){	
	if(temperature.sig==1) return 0;
    1f32:	89 2f       	mov	r24, r25
    1f34:	08 95       	ret
}


	
//	
return 1;	
    1f36:	81 e0       	ldi	r24, 0x01	; 1
    1f38:	08 95       	ret
	}
	else
	{
		return 0;
	}
}else return 0;	
    1f3a:	80 e0       	ldi	r24, 0x00	; 0
	{
		return 0;
	}
}else return 0;	
*/
}
    1f3c:	08 95       	ret

00001f3e <test_battery>:
//------------------------------------------------------------------------------------------------------------------
//1 - voltage OK 0 - not OK
uint8_t test_battery(void){
if(enable_battery_voltage==0) return 1;
    1f3e:	80 91 3d 01 	lds	r24, 0x013D	; 0x80013d <enable_battery_voltage>
    1f42:	88 23       	and	r24, r24
    1f44:	71 f0       	breq	.+28     	; 0x1f62 <test_battery+0x24>
    1f46:	81 e0       	ldi	r24, 0x01	; 1
    1f48:	40 91 3e 01 	lds	r20, 0x013E	; 0x80013e <battery_voltage_current_value_bin>
    1f4c:	50 91 3f 01 	lds	r21, 0x013F	; 0x80013f <battery_voltage_current_value_bin+0x1>
    1f50:	20 91 b6 01 	lds	r18, 0x01B6	; 0x8001b6 <battery_voltage_setp_value_low_bin>
    1f54:	30 91 b7 01 	lds	r19, 0x01B7	; 0x8001b7 <battery_voltage_setp_value_low_bin+0x1>
    1f58:	42 17       	cp	r20, r18
    1f5a:	53 07       	cpc	r21, r19
    1f5c:	18 f4       	brcc	.+6      	; 0x1f64 <test_battery+0x26>
    1f5e:	80 e0       	ldi	r24, 0x00	; 0
    1f60:	08 95       	ret
    1f62:	81 e0       	ldi	r24, 0x01	; 1
if(battery_voltage_current_value_bin<battery_voltage_setp_value_low_bin) return 0;
else return 1;
}
    1f64:	08 95       	ret

00001f66 <uart_init>:
{
#if F_CPU < 2000000UL && defined(U2X)
  UCSRA = _BV(U2X);             /* improve baud rate error by using 2x clk */
  UBRRL = (F_CPU / (8UL * UART_BAUD)) - 1;
#else
  UBRRL = (F_CPU / (16UL * UART_BAUD)) - 1;
    1f66:	87 e6       	ldi	r24, 0x67	; 103
    1f68:	89 b9       	out	0x09, r24	; 9
#endif
  UCSRB = _BV(TXEN) | _BV(RXEN); /* tx/rx enable */
    1f6a:	88 e1       	ldi	r24, 0x18	; 24
    1f6c:	8a b9       	out	0x0a, r24	; 10
    1f6e:	08 95       	ret

00001f70 <main>:


int main(void)
{

wdt_reset ();
    1f70:	a8 95       	wdr
__attribute__ ((__always_inline__))
void wdt_enable (const uint8_t value)
{
	if (_SFR_IO_REG_P (_WD_CONTROL_REG))
	{
		__asm__ __volatile__ (
    1f72:	9f e0       	ldi	r25, 0x0F	; 15
    1f74:	88 e1       	ldi	r24, 0x18	; 24
    1f76:	0f b6       	in	r0, 0x3f	; 63
    1f78:	f8 94       	cli
    1f7a:	a8 95       	wdr
    1f7c:	81 bd       	out	0x21, r24	; 33
    1f7e:	0f be       	out	0x3f, r0	; 63
    1f80:	91 bd       	out	0x21, r25	; 33
 // UCSRC = (1<<URSEL)|(3<<UCSZ0);
}
//------------------------------------------------------------------------------------------------------------------
static void ioinit(void)
{
	DDRA=0x00;
    1f82:	1a ba       	out	0x1a, r1	; 26
	PORTA=0x1f;
    1f84:	8f e1       	ldi	r24, 0x1F	; 31
    1f86:	8b bb       	out	0x1b, r24	; 27
	DDRB=0x80;
    1f88:	80 e8       	ldi	r24, 0x80	; 128
    1f8a:	87 bb       	out	0x17, r24	; 23
	PORTB=0x00;
    1f8c:	18 ba       	out	0x18, r1	; 24
	DDRD=0x7f;
    1f8e:	8f e7       	ldi	r24, 0x7F	; 127
    1f90:	81 bb       	out	0x11, r24	; 17
	PORTD=0x00;
    1f92:	12 ba       	out	0x12, r1	; 18
	DDRC=0x70;
    1f94:	80 e7       	ldi	r24, 0x70	; 112
    1f96:	84 bb       	out	0x14, r24	; 20
	PORTC=0x00;
    1f98:	15 ba       	out	0x15, r1	; 21
wdt_enable( WDTO_2S);

	ioinit();

//!!
	uart_init();
    1f9a:	0e 94 b3 0f 	call	0x1f66	; 0x1f66 <uart_init>
//!!
	lcd_init();
    1f9e:	0e 94 d6 19 	call	0x33ac	; 0x33ac <lcd_init>
    1fa2:	20 e4       	ldi	r18, 0x40	; 64
    1fa4:	05 c0       	rjmp	.+10     	; 0x1fb0 <main+0x40>
	
	//   
	//!!    RTC:
	for (uint8_t i=0; i < 0x40; i++)
	{
		for (int j=0; j < 0xFFFF; j++)	wdt_reset ();
    1fa6:	a8 95       	wdr
    1fa8:	01 97       	sbiw	r24, 0x01	; 1
    1faa:	e9 f7       	brne	.-6      	; 0x1fa6 <main+0x36>
    1fac:	21 50       	subi	r18, 0x01	; 1
	
	
	
	//   
	//!!    RTC:
	for (uint8_t i=0; i < 0x40; i++)
    1fae:	19 f0       	breq	.+6      	; 0x1fb6 <main+0x46>
//FILE uart_str = FDEV_SETUP_STREAM(uart_putchar, uart_getchar, _FDEV_SETUP_RW);
FILE lcd_str = FDEV_SETUP_STREAM(lcd_putchar, NULL, _FDEV_SETUP_WRITE);


int main(void)
{
    1fb0:	8f ef       	ldi	r24, 0xFF	; 255
    1fb2:	9f ef       	ldi	r25, 0xFF	; 255
    1fb4:	f8 cf       	rjmp	.-16     	; 0x1fa6 <main+0x36>
	//!!    RTC:
	for (uint8_t i=0; i < 0x40; i++)
	{
		for (int j=0; j < 0xFFFF; j++)	wdt_reset ();
	}
	cli();
    1fb6:	f8 94       	cli
	//    2.
	TIMSK &= ~(_BV(TOIE2) | _BV(OCIE2));
    1fb8:	89 b7       	in	r24, 0x39	; 57
    1fba:	8f 73       	andi	r24, 0x3F	; 63
    1fbc:	89 bf       	out	0x39, r24	; 57
	
	// Timer/counter0     
	//   ,    
	// 32768 :
	ASSR |= (1 << AS2);
    1fbe:	82 b5       	in	r24, 0x22	; 34
    1fc0:	88 60       	ori	r24, 0x08	; 8
    1fc2:	82 bd       	out	0x22, r24	; 34
	// :
	TCNT2 =0;
    1fc4:	14 bc       	out	0x24, r1	; 36
	//  ,   
	//   128,   1- 
	//     :
	TCCR2 =(1 << CS20)|(1 << CS22);
    1fc6:	85 e0       	ldi	r24, 0x05	; 5
    1fc8:	85 bd       	out	0x25, r24	; 37
	//   TC0:
	while (ASSR & ((1 << TCN2UB)|(1 << OCR2UB)|(1 << TCR2UB)))
    1fca:	82 b5       	in	r24, 0x22	; 34
    1fcc:	87 70       	andi	r24, 0x07	; 7
    1fce:	21 f0       	breq	.+8      	; 0x1fd8 <main+0x68>
	{wdt_reset ();}
    1fd0:	a8 95       	wdr
	//  ,   
	//   128,   1- 
	//     :
	TCCR2 =(1 << CS20)|(1 << CS22);
	//   TC0:
	while (ASSR & ((1 << TCN2UB)|(1 << OCR2UB)|(1 << TCR2UB)))
    1fd2:	82 b5       	in	r24, 0x22	; 34
    1fd4:	87 70       	andi	r24, 0x07	; 7
    1fd6:	e1 f7       	brne	.-8      	; 0x1fd0 <main+0x60>
	{wdt_reset ();}
	//    8-
	// Timer/Counter2 (Overflow Interrupt Enable):
	TIMSK |= (1 << TOIE2);
    1fd8:	89 b7       	in	r24, 0x39	; 57
    1fda:	80 64       	ori	r24, 0x40	; 64
    1fdc:	89 bf       	out	0x39, r24	; 57
	//  :
	sei();
    1fde:	78 94       	sei
//!!
	lcd_init();
//!!

	RTC_init();
wdt_reset ();	
    1fe0:	a8 95       	wdr
//SREG = sreg;	
}
//------------------------------------------------------------------------------------------------------------------
static void init_ADC(void)
{
	ACSR = (1<<ACBG);
    1fe2:	80 e4       	ldi	r24, 0x40	; 64
    1fe4:	88 b9       	out	0x08, r24	; 8
	ADMUX = (1<<REFS1)|(1<<REFS0);
    1fe6:	80 ec       	ldi	r24, 0xC0	; 192
    1fe8:	87 b9       	out	0x07, r24	; 7
	//ADMUX = (1<<REFS0);
	ADCSRA = (1<<ADEN);
    1fea:	80 e8       	ldi	r24, 0x80	; 128
    1fec:	86 b9       	out	0x06, r24	; 6
//!!

	RTC_init();
wdt_reset ();	
	init_ADC();
wdt_reset ();
    1fee:	a8 95       	wdr
	read_eeprom_setp();
    1ff0:	0e 94 ed 06 	call	0xdda	; 0xdda <read_eeprom_setp>
wdt_reset ();	
    1ff4:	a8 95       	wdr
//----- test calibration ---------------------------	
	flag_calibration=(PINA&0x1f);
    1ff6:	89 b3       	in	r24, 0x19	; 25
    1ff8:	8f 71       	andi	r24, 0x1F	; 31
    1ffa:	80 93 1c 01 	sts	0x011C, r24	; 0x80011c <flag_calibration>
	if(flag_calibration==_left)
    1ffe:	8b 31       	cpi	r24, 0x1B	; 27
    2000:	a9 f4       	brne	.+42     	; 0x202c <main+0xbc>
	#else
		//round up by default
		__ticks_dc = (uint32_t)(ceil(fabs(__tmp)));
	#endif

	__builtin_avr_delay_cycles(__ticks_dc);
    2002:	2f ef       	ldi	r18, 0xFF	; 255
    2004:	33 ec       	ldi	r19, 0xC3	; 195
    2006:	89 e0       	ldi	r24, 0x09	; 9
    2008:	21 50       	subi	r18, 0x01	; 1
    200a:	30 40       	sbci	r19, 0x00	; 0
    200c:	80 40       	sbci	r24, 0x00	; 0
    200e:	e1 f7       	brne	.-8      	; 0x2008 <main+0x98>
    2010:	00 c0       	rjmp	.+0      	; 0x2012 <main+0xa2>
    2012:	00 00       	nop
	{
		_delay_ms(200);
		wdt_reset ();
    2014:	a8 95       	wdr
		flag_calibration=(PINA&0x1f);
    2016:	89 b3       	in	r24, 0x19	; 25
    2018:	8f 71       	andi	r24, 0x1F	; 31
		
		if (flag_calibration==_left)
    201a:	8b 31       	cpi	r24, 0x1B	; 27
    201c:	21 f4       	brne	.+8      	; 0x2026 <main+0xb6>
		{
			flag_calibration=1;
    201e:	81 e0       	ldi	r24, 0x01	; 1
    2020:	80 93 1c 01 	sts	0x011C, r24	; 0x80011c <flag_calibration>
    2024:	05 c0       	rjmp	.+10     	; 0x2030 <main+0xc0>
		}
		else
		{
			flag_calibration=0;
    2026:	10 92 1c 01 	sts	0x011C, r1	; 0x80011c <flag_calibration>
    202a:	02 c0       	rjmp	.+4      	; 0x2030 <main+0xc0>
		}
	}
	else
	{
		flag_calibration=0;
    202c:	10 92 1c 01 	sts	0x011C, r1	; 0x80011c <flag_calibration>
	}
//----------------------------------------------------
 stdout =   stderr = &lcd_str;
    2030:	e6 ec       	ldi	r30, 0xC6	; 198
    2032:	f1 e0       	ldi	r31, 0x01	; 1
    2034:	80 e6       	ldi	r24, 0x60	; 96
    2036:	90 e0       	ldi	r25, 0x00	; 0
    2038:	95 83       	std	Z+5, r25	; 0x05
    203a:	84 83       	std	Z+4, r24	; 0x04
    203c:	93 83       	std	Z+3, r25	; 0x03
    203e:	82 83       	std	Z+2, r24	; 0x02
//===========================================
ON_LCD_BACKLIGHT;
    2040:	c7 9a       	sbi	0x18, 7	; 24
//bild welcome
	lcd_reset();
    2042:	0e 94 06 1a 	call	0x340c	; 0x340c <lcd_reset>
	clr_blink();
    2046:	0e 94 d2 04 	call	0x9a4	; 0x9a4 <clr_blink>
	lcd_1_strin();
    204a:	0e 94 19 1a 	call	0x3432	; 0x3432 <lcd_1_strin>
	printf_P(PSTR("GTS ELECTRONICS "));
    204e:	87 ea       	ldi	r24, 0xA7	; 167
    2050:	92 e0       	ldi	r25, 0x02	; 2
    2052:	9f 93       	push	r25
    2054:	8f 93       	push	r24
    2056:	0e 94 81 1a 	call	0x3502	; 0x3502 <printf_P>
	lcd_2_strin();
    205a:	0e 94 20 1a 	call	0x3440	; 0x3440 <lcd_2_strin>
	printf_P(PSTR("  gts-el.com    "));
    205e:	86 e9       	ldi	r24, 0x96	; 150
    2060:	92 e0       	ldi	r25, 0x02	; 2
    2062:	9f 93       	push	r25
    2064:	8f 93       	push	r24
    2066:	0e 94 81 1a 	call	0x3502	; 0x3502 <printf_P>
	//lcd_1_strin();
	wdt_reset ();
    206a:	a8 95       	wdr
    206c:	9f ef       	ldi	r25, 0xFF	; 255
    206e:	e3 ed       	ldi	r30, 0xD3	; 211
    2070:	f0 e3       	ldi	r31, 0x30	; 48
    2072:	91 50       	subi	r25, 0x01	; 1
    2074:	e0 40       	sbci	r30, 0x00	; 0
    2076:	f0 40       	sbci	r31, 0x00	; 0
    2078:	e1 f7       	brne	.-8      	; 0x2072 <main+0x102>
    207a:	00 c0       	rjmp	.+0      	; 0x207c <main+0x10c>
    207c:	00 00       	nop
	_delay_ms(1000);
	wdt_reset ();
    207e:	a8 95       	wdr
    2080:	2f ef       	ldi	r18, 0xFF	; 255
    2082:	33 ed       	ldi	r19, 0xD3	; 211
    2084:	80 e3       	ldi	r24, 0x30	; 48
    2086:	21 50       	subi	r18, 0x01	; 1
    2088:	30 40       	sbci	r19, 0x00	; 0
    208a:	80 40       	sbci	r24, 0x00	; 0
    208c:	e1 f7       	brne	.-8      	; 0x2086 <main+0x116>
    208e:	00 c0       	rjmp	.+0      	; 0x2090 <main+0x120>
    2090:	00 00       	nop
	_delay_ms(1000);
	wdt_reset ();
    2092:	a8 95       	wdr
//	clr_lcd();
//	lcd_1_strin();
//	printf_P(PSTR("GTS ELECTRONICS "));
	lcd_2_strin();
    2094:	0e 94 20 1a 	call	0x3440	; 0x3440 <lcd_2_strin>
	printf_P(PSTR("   Ver. 01.18   "));
    2098:	85 e8       	ldi	r24, 0x85	; 133
    209a:	92 e0       	ldi	r25, 0x02	; 2
    209c:	9f 93       	push	r25
    209e:	8f 93       	push	r24
    20a0:	0e 94 81 1a 	call	0x3502	; 0x3502 <printf_P>
	lcd_1_strin();
    20a4:	0e 94 19 1a 	call	0x3432	; 0x3432 <lcd_1_strin>
    20a8:	9f ef       	ldi	r25, 0xFF	; 255
    20aa:	e3 ed       	ldi	r30, 0xD3	; 211
    20ac:	f0 e3       	ldi	r31, 0x30	; 48
    20ae:	91 50       	subi	r25, 0x01	; 1
    20b0:	e0 40       	sbci	r30, 0x00	; 0
    20b2:	f0 40       	sbci	r31, 0x00	; 0
    20b4:	e1 f7       	brne	.-8      	; 0x20ae <main+0x13e>
    20b6:	00 c0       	rjmp	.+0      	; 0x20b8 <main+0x148>
    20b8:	00 00       	nop
	_delay_ms(1000);
wdt_reset ();
    20ba:	a8 95       	wdr
//===========================================
	meas_bat();
    20bc:	0e 94 d5 0e 	call	0x1daa	; 0x1daa <meas_bat>
	meas_temp();
    20c0:	0e 94 fc 0b 	call	0x17f8	; 0x17f8 <meas_temp>
    20c4:	2f ef       	ldi	r18, 0xFF	; 255
    20c6:	33 ed       	ldi	r19, 0xD3	; 211
    20c8:	80 e3       	ldi	r24, 0x30	; 48
    20ca:	21 50       	subi	r18, 0x01	; 1
    20cc:	30 40       	sbci	r19, 0x00	; 0
    20ce:	80 40       	sbci	r24, 0x00	; 0
    20d0:	e1 f7       	brne	.-8      	; 0x20ca <main+0x15a>
    20d2:	00 c0       	rjmp	.+0      	; 0x20d4 <main+0x164>
    20d4:	00 00       	nop
	_delay_ms(1000);
wdt_reset ();	
    20d6:	a8 95       	wdr
	meas_bat();	
    20d8:	0e 94 d5 0e 	call	0x1daa	; 0x1daa <meas_bat>
	meas_temp();
    20dc:	0e 94 fc 0b 	call	0x17f8	; 0x17f8 <meas_temp>

	if(type_generator==1){
    20e0:	0f 90       	pop	r0
    20e2:	0f 90       	pop	r0
    20e4:	0f 90       	pop	r0
    20e6:	0f 90       	pop	r0
    20e8:	0f 90       	pop	r0
    20ea:	0f 90       	pop	r0
    20ec:	80 91 95 01 	lds	r24, 0x0195	; 0x800195 <type_generator>
    20f0:	81 30       	cpi	r24, 0x01	; 1
    20f2:	11 f4       	brne	.+4      	; 0x20f8 <main+0x188>
		ON_RELAY_2;
    20f4:	96 9a       	sbi	0x12, 6	; 18
    20f6:	01 c0       	rjmp	.+2      	; 0x20fa <main+0x18a>
		}else{
		OFF_RELAY_2;
    20f8:	96 98       	cbi	0x12, 6	; 18
	}
	

//----- test calibration ---------------------------
if(flag_calibration==1)
    20fa:	80 91 1c 01 	lds	r24, 0x011C	; 0x80011c <flag_calibration>
    20fe:	81 30       	cpi	r24, 0x01	; 1
    2100:	11 f0       	breq	.+4      	; 0x2106 <main+0x196>
    2102:	0c 94 46 19 	jmp	0x328c	; 0x328c <main+0x131c>
{
	flag_calibration=(PINA&0x1f);
    2106:	89 b3       	in	r24, 0x19	; 25
    2108:	8f 71       	andi	r24, 0x1F	; 31
	if(flag_calibration==_left)
    210a:	8b 31       	cpi	r24, 0x1B	; 27
    210c:	39 f4       	brne	.+14     	; 0x211c <main+0x1ac>
	{
		flag_calibration=1;
    210e:	81 e0       	ldi	r24, 0x01	; 1
    2110:	80 93 1c 01 	sts	0x011C, r24	; 0x80011c <flag_calibration>
}

//----------------------------------------------------	
if (flag_calibration==1)
{
	state=CALIBRATION;
    2114:	84 e2       	ldi	r24, 0x24	; 36
    2116:	80 93 19 01 	sts	0x0119, r24	; 0x800119 <state>
    211a:	04 c0       	rjmp	.+8      	; 0x2124 <main+0x1b4>
	{
		flag_calibration=1;
	}
	else
	{
		flag_calibration=0;
    211c:	10 92 1c 01 	sts	0x011C, r1	; 0x80011c <flag_calibration>
    2120:	0c 94 46 19 	jmp	0x328c	; 0x328c <main+0x131c>
	state=WAIT;
	start_timer_wait();
}

	//clr_key();	
	clr_key();
    2124:	0e 94 69 03 	call	0x6d2	; 0x6d2 <clr_key>
	lcd_reset();
    2128:	0e 94 06 1a 	call	0x340c	; 0x340c <lcd_reset>
	
	sei();
    212c:	78 94       	sei
}
index++;
//-------------------------------------
if (index>=8)	index=0;
	//test eqwal
	if ((buf_key[0]==buf_key[1])&&(buf_key[0]==buf_key[2])&&(buf_key[0]==buf_key[3])&&(buf_key[0]==buf_key[4])&&(buf_key[0]==buf_key[5])&&(buf_key[0]==buf_key[6])&&(buf_key[0]==buf_key[7]))
    212e:	c0 e1       	ldi	r28, 0x10	; 16
    2130:	d1 e0       	ldi	r29, 0x01	; 1
	lcd_1_strin();
}
//------------------------------------------------------------------------------------------------------------------
static void build_windou_calobration(void){
	lcd_1_strin();
	printf("Battery: %s   ",battery_voltage_string_current_value);
    2132:	01 ec       	ldi	r16, 0xC1	; 193
    2134:	11 e0       	ldi	r17, 0x01	; 1
    2136:	0f 2e       	mov	r0, r31
    2138:	f9 ee       	ldi	r31, 0xE9	; 233
    213a:	2f 2e       	mov	r2, r31
    213c:	f0 e0       	ldi	r31, 0x00	; 0
    213e:	3f 2e       	mov	r3, r31
    2140:	f0 2d       	mov	r31, r0
}
//------------------------------------------------------------------------------------------------------------------
static void build_menu_temperature_hight(void)
{
	lcd_1_strin();
	printf_P(PSTR("Hight temperat. "));
    2142:	0f 2e       	mov	r0, r31
    2144:	f4 e6       	ldi	r31, 0x64	; 100
    2146:	6f 2e       	mov	r6, r31
    2148:	f1 e0       	ldi	r31, 0x01	; 1
    214a:	7f 2e       	mov	r7, r31
    214c:	f0 2d       	mov	r31, r0
	lcd_2_strin();
	printf_P(PSTR("<-exit   enter->"));
    214e:	0f 2e       	mov	r0, r31
    2150:	f3 e5       	ldi	r31, 0x53	; 83
    2152:	4f 2e       	mov	r4, r31
    2154:	f1 e0       	ldi	r31, 0x01	; 1
    2156:	5f 2e       	mov	r5, r31
    2158:	f0 2d       	mov	r31, r0
	build_menu_temperature_hight();
	//	  clr_blink();
	
	//---------- test KEY ------------------------------------
	if(key== _right){
		if(temperature.enable_hight){
    215a:	0f 2e       	mov	r0, r31
    215c:	fb e5       	ldi	r31, 0x5B	; 91
    215e:	ef 2e       	mov	r14, r31
    2160:	f1 e0       	ldi	r31, 0x01	; 1
    2162:	ff 2e       	mov	r15, r31
    2164:	f0 2d       	mov	r31, r0
}
//------------------------------------------------------------------------------------------------------------------
static void build_menu_temperature_low(void)
{
	lcd_1_strin();
	printf_P(PSTR("Low  temperature"));
    2166:	0f 2e       	mov	r0, r31
    2168:	f6 e8       	ldi	r31, 0x86	; 134
    216a:	af 2e       	mov	r10, r31
    216c:	f1 e0       	ldi	r31, 0x01	; 1
    216e:	bf 2e       	mov	r11, r31
    2170:	f0 2d       	mov	r31, r0
	lcd_2_strin();
	printf_P(PSTR("<-exit   enter->"));
    2172:	0f 2e       	mov	r0, r31
    2174:	f5 e7       	ldi	r31, 0x75	; 117
    2176:	8f 2e       	mov	r8, r31
    2178:	f1 e0       	ldi	r31, 0x01	; 1
    217a:	9f 2e       	mov	r9, r31
    217c:	f0 2d       	mov	r31, r0
}
//------------------------------------------------------------------------------------------------------------------
static void build_menu_battery_voltage(void)
{
	lcd_1_strin();
	printf_P(PSTR("Battery voltage "));
    217e:	0f 2e       	mov	r0, r31
    2180:	f8 ea       	ldi	r31, 0xA8	; 168
    2182:	cf 2e       	mov	r12, r31
    2184:	f1 e0       	ldi	r31, 0x01	; 1
    2186:	df 2e       	mov	r13, r31
    2188:	f0 2d       	mov	r31, r0
	
//--------------------------------------------------------------------
  for (;;)
    {
//######################################################################################		
wdt_reset ();		
    218a:	a8 95       	wdr
//####################### meas temp and U bat ##########################################	
if(flag_meas_bat==1){
    218c:	80 91 1e 01 	lds	r24, 0x011E	; 0x80011e <flag_meas_bat>
    2190:	81 30       	cpi	r24, 0x01	; 1
    2192:	21 f4       	brne	.+8      	; 0x219c <main+0x22c>
	meas_bat();			
    2194:	0e 94 d5 0e 	call	0x1daa	; 0x1daa <meas_bat>
	flag_meas_bat=0;
    2198:	10 92 1e 01 	sts	0x011E, r1	; 0x80011e <flag_meas_bat>
}
if(flag_meas_temp==1){
    219c:	80 91 1d 01 	lds	r24, 0x011D	; 0x80011d <flag_meas_temp>
    21a0:	81 30       	cpi	r24, 0x01	; 1
    21a2:	21 f4       	brne	.+8      	; 0x21ac <main+0x23c>
	meas_temp();
    21a4:	0e 94 fc 0b 	call	0x17f8	; 0x17f8 <meas_temp>
	flag_meas_temp=0;
    21a8:	10 92 1d 01 	sts	0x011D, r1	; 0x80011d <flag_meas_temp>
}
//################ test RELAY  #########################################################
if((state==WORK)||(state==MANUALLY_STARTED))
    21ac:	80 91 19 01 	lds	r24, 0x0119	; 0x800119 <state>
    21b0:	82 30       	cpi	r24, 0x02	; 2
    21b2:	21 f0       	breq	.+8      	; 0x21bc <main+0x24c>
    21b4:	80 91 19 01 	lds	r24, 0x0119	; 0x800119 <state>
    21b8:	83 32       	cpi	r24, 0x23	; 35
    21ba:	41 f4       	brne	.+16     	; 0x21cc <main+0x25c>
{
	if(type_generator==1){
    21bc:	80 91 95 01 	lds	r24, 0x0195	; 0x800195 <type_generator>
    21c0:	81 30       	cpi	r24, 0x01	; 1
    21c2:	11 f4       	brne	.+4      	; 0x21c8 <main+0x258>
			OFF_RELAY_2;	
    21c4:	96 98       	cbi	0x12, 6	; 18
    21c6:	09 c0       	rjmp	.+18     	; 0x21da <main+0x26a>
	}else{
			ON_RELAY_2;	
    21c8:	96 9a       	sbi	0x12, 6	; 18
    21ca:	07 c0       	rjmp	.+14     	; 0x21da <main+0x26a>
	}
}
else
{
	if(type_generator==1){
    21cc:	80 91 95 01 	lds	r24, 0x0195	; 0x800195 <type_generator>
    21d0:	81 30       	cpi	r24, 0x01	; 1
    21d2:	11 f4       	brne	.+4      	; 0x21d8 <main+0x268>
			ON_RELAY_2;
    21d4:	96 9a       	sbi	0x12, 6	; 18
    21d6:	01 c0       	rjmp	.+2      	; 0x21da <main+0x26a>
	}else{
			OFF_RELAY_2;
    21d8:	96 98       	cbi	0x12, 6	; 18

static uint8_t test_key(void)
{
volatile static uint8_t index=0;
//-------------------------------------
buf_key[index]=(PINA&0x1f);
    21da:	e0 91 0c 01 	lds	r30, 0x010C	; 0x80010c <__data_end>
    21de:	89 b3       	in	r24, 0x19	; 25
    21e0:	f0 e0       	ldi	r31, 0x00	; 0
    21e2:	e0 5f       	subi	r30, 0xF0	; 240
    21e4:	fe 4f       	sbci	r31, 0xFE	; 254
    21e6:	8f 71       	andi	r24, 0x1F	; 31
    21e8:	80 83       	st	Z, r24

if(buf_key[index]!=0x1f){
    21ea:	e0 91 0c 01 	lds	r30, 0x010C	; 0x80010c <__data_end>
    21ee:	f0 e0       	ldi	r31, 0x00	; 0
    21f0:	e0 5f       	subi	r30, 0xF0	; 240
    21f2:	fe 4f       	sbci	r31, 0xFE	; 254
    21f4:	80 81       	ld	r24, Z
    21f6:	8f 31       	cpi	r24, 0x1F	; 31
    21f8:	19 f0       	breq	.+6      	; 0x2200 <main+0x290>
	 cnt_light=0;
    21fa:	10 92 1b 01 	sts	0x011B, r1	; 0x80011b <cnt_light>
	 ON_LCD_BACKLIGHT;
    21fe:	c7 9a       	sbi	0x18, 7	; 24
}
index++;
    2200:	80 91 0c 01 	lds	r24, 0x010C	; 0x80010c <__data_end>
    2204:	8f 5f       	subi	r24, 0xFF	; 255
    2206:	80 93 0c 01 	sts	0x010C, r24	; 0x80010c <__data_end>
//-------------------------------------
if (index>=8)	index=0;
    220a:	80 91 0c 01 	lds	r24, 0x010C	; 0x80010c <__data_end>
    220e:	88 30       	cpi	r24, 0x08	; 8
    2210:	10 f0       	brcs	.+4      	; 0x2216 <main+0x2a6>
    2212:	10 92 0c 01 	sts	0x010C, r1	; 0x80010c <__data_end>
	//test eqwal
	if ((buf_key[0]==buf_key[1])&&(buf_key[0]==buf_key[2])&&(buf_key[0]==buf_key[3])&&(buf_key[0]==buf_key[4])&&(buf_key[0]==buf_key[5])&&(buf_key[0]==buf_key[6])&&(buf_key[0]==buf_key[7]))
    2216:	88 81       	ld	r24, Y
    2218:	99 81       	ldd	r25, Y+1	; 0x01
    221a:	89 13       	cpse	r24, r25
    221c:	1d c0       	rjmp	.+58     	; 0x2258 <main+0x2e8>
    221e:	9a 81       	ldd	r25, Y+2	; 0x02
    2220:	89 13       	cpse	r24, r25
    2222:	1c c0       	rjmp	.+56     	; 0x225c <main+0x2ec>
    2224:	9b 81       	ldd	r25, Y+3	; 0x03
    2226:	89 13       	cpse	r24, r25
    2228:	1b c0       	rjmp	.+54     	; 0x2260 <main+0x2f0>
    222a:	9c 81       	ldd	r25, Y+4	; 0x04
    222c:	89 13       	cpse	r24, r25
    222e:	1a c0       	rjmp	.+52     	; 0x2264 <main+0x2f4>
    2230:	9d 81       	ldd	r25, Y+5	; 0x05
    2232:	89 13       	cpse	r24, r25
    2234:	19 c0       	rjmp	.+50     	; 0x2268 <main+0x2f8>
    2236:	9e 81       	ldd	r25, Y+6	; 0x06
    2238:	89 13       	cpse	r24, r25
    223a:	18 c0       	rjmp	.+48     	; 0x226c <main+0x2fc>
    223c:	9f 81       	ldd	r25, Y+7	; 0x07
    223e:	89 13       	cpse	r24, r25
    2240:	17 c0       	rjmp	.+46     	; 0x2270 <main+0x300>
		{
			if (buf_key[0]==0x1f) 
    2242:	8f 31       	cpi	r24, 0x1F	; 31
    2244:	11 f0       	breq	.+4      	; 0x224a <main+0x2da>
    2246:	0c 94 4d 19 	jmp	0x329a	; 0x329a <main+0x132a>
			{
			flag=0;
    224a:	10 92 0f 01 	sts	0x010F, r1	; 0x80010f <flag>
    224e:	11 c0       	rjmp	.+34     	; 0x2272 <main+0x302>
			if(flag==0) 
			{

				if (buf_key[0]!=0x1f)
					{
					flag=1;
    2250:	91 e0       	ldi	r25, 0x01	; 1
    2252:	90 93 0f 01 	sts	0x010F, r25	; 0x80010f <flag>
    2256:	0d c0       	rjmp	.+26     	; 0x2272 <main+0x302>
			return 0x1f;
			}
		}
	else 
	{
	return 0x1f;
    2258:	8f e1       	ldi	r24, 0x1F	; 31
    225a:	0b c0       	rjmp	.+22     	; 0x2272 <main+0x302>
    225c:	8f e1       	ldi	r24, 0x1F	; 31
    225e:	09 c0       	rjmp	.+18     	; 0x2272 <main+0x302>
    2260:	8f e1       	ldi	r24, 0x1F	; 31
    2262:	07 c0       	rjmp	.+14     	; 0x2272 <main+0x302>
    2264:	8f e1       	ldi	r24, 0x1F	; 31
    2266:	05 c0       	rjmp	.+10     	; 0x2272 <main+0x302>
    2268:	8f e1       	ldi	r24, 0x1F	; 31
    226a:	03 c0       	rjmp	.+6      	; 0x2272 <main+0x302>
    226c:	8f e1       	ldi	r24, 0x1F	; 31
    226e:	01 c0       	rjmp	.+2      	; 0x2272 <main+0x302>
    2270:	8f e1       	ldi	r24, 0x1F	; 31
	}else{
			OFF_RELAY_2;
	}
}
//################ test KEY ############################################################
	key=test_key();
    2272:	80 93 18 01 	sts	0x0118, r24	; 0x800118 <key>
//######################################################################################
if(state==WAIT)
    2276:	80 91 19 01 	lds	r24, 0x0119	; 0x800119 <state>
    227a:	81 30       	cpi	r24, 0x01	; 1
    227c:	09 f0       	breq	.+2      	; 0x2280 <main+0x310>
    227e:	d3 c0       	rjmp	.+422    	; 0x2426 <main+0x4b6>
{
	//uint8_t	ac=PINA&0x20;	//0-AC ON    0x20 - AC OFF 
 	if(PINA&0x20){
    2280:	cd 9b       	sbis	0x19, 5	; 25
    2282:	41 c0       	rjmp	.+130    	; 0x2306 <main+0x396>
//	lcd_1_strin();
}
//------------------------------------------------------------------------------------------------------------------
static void build_windou_mains_off(void)
{
	lcd_1_strin();
    2284:	0e 94 19 1a 	call	0x3432	; 0x3432 <lcd_1_strin>
	printf("AC OFF  %s ",wate_time);
    2288:	88 eb       	ldi	r24, 0xB8	; 184
    228a:	91 e0       	ldi	r25, 0x01	; 1
    228c:	9f 93       	push	r25
    228e:	8f 93       	push	r24
    2290:	8c e9       	ldi	r24, 0x9C	; 156
    2292:	90 e0       	ldi	r25, 0x00	; 0
    2294:	9f 93       	push	r25
    2296:	8f 93       	push	r24
    2298:	0e 94 6b 1a 	call	0x34d6	; 0x34d6 <printf>
	lcd_2_strin();
    229c:	0e 94 20 1a 	call	0x3440	; 0x3440 <lcd_2_strin>
	printf("%s v   ",battery_voltage_string_current_value);
    22a0:	1f 93       	push	r17
    22a2:	0f 93       	push	r16
    22a4:	88 ea       	ldi	r24, 0xA8	; 168
    22a6:	90 e0       	ldi	r25, 0x00	; 0
    22a8:	9f 93       	push	r25
    22aa:	8f 93       	push	r24
    22ac:	0e 94 6b 1a 	call	0x34d6	; 0x34d6 <printf>
	if(temperature.sig) printf("-%s ",temperature.string_current_value);
    22b0:	ed b7       	in	r30, 0x3d	; 61
    22b2:	fe b7       	in	r31, 0x3e	; 62
    22b4:	38 96       	adiw	r30, 0x08	; 8
    22b6:	0f b6       	in	r0, 0x3f	; 63
    22b8:	f8 94       	cli
    22ba:	fe bf       	out	0x3e, r31	; 62
    22bc:	0f be       	out	0x3f, r0	; 63
    22be:	ed bf       	out	0x3d, r30	; 61
    22c0:	f7 01       	movw	r30, r14
    22c2:	85 8d       	ldd	r24, Z+29	; 0x1d
    22c4:	96 8d       	ldd	r25, Z+30	; 0x1e
    22c6:	89 2b       	or	r24, r25
    22c8:	79 f0       	breq	.+30     	; 0x22e8 <main+0x378>
    22ca:	8f e6       	ldi	r24, 0x6F	; 111
    22cc:	91 e0       	ldi	r25, 0x01	; 1
    22ce:	9f 93       	push	r25
    22d0:	8f 93       	push	r24
    22d2:	80 eb       	ldi	r24, 0xB0	; 176
    22d4:	90 e0       	ldi	r25, 0x00	; 0
    22d6:	9f 93       	push	r25
    22d8:	8f 93       	push	r24
    22da:	0e 94 6b 1a 	call	0x34d6	; 0x34d6 <printf>
    22de:	0f 90       	pop	r0
    22e0:	0f 90       	pop	r0
    22e2:	0f 90       	pop	r0
    22e4:	0f 90       	pop	r0
    22e6:	50 c0       	rjmp	.+160    	; 0x2388 <main+0x418>
	else printf(" %s ",temperature.string_current_value);
    22e8:	8f e6       	ldi	r24, 0x6F	; 111
    22ea:	91 e0       	ldi	r25, 0x01	; 1
    22ec:	9f 93       	push	r25
    22ee:	8f 93       	push	r24
    22f0:	8c eb       	ldi	r24, 0xBC	; 188
    22f2:	90 e0       	ldi	r25, 0x00	; 0
    22f4:	9f 93       	push	r25
    22f6:	8f 93       	push	r24
    22f8:	0e 94 6b 1a 	call	0x34d6	; 0x34d6 <printf>
    22fc:	0f 90       	pop	r0
    22fe:	0f 90       	pop	r0
    2300:	0f 90       	pop	r0
    2302:	0f 90       	pop	r0
    2304:	41 c0       	rjmp	.+130    	; 0x2388 <main+0x418>
		return 0;
}
//------------------------------------------------------------------------------------------------------------------
static void build_windou_mains_on(void)
{
	lcd_1_strin();
    2306:	0e 94 19 1a 	call	0x3432	; 0x3432 <lcd_1_strin>
	printf("AC ON   %s ",wate_time);
    230a:	88 eb       	ldi	r24, 0xB8	; 184
    230c:	91 e0       	ldi	r25, 0x01	; 1
    230e:	9f 93       	push	r25
    2310:	8f 93       	push	r24
    2312:	85 eb       	ldi	r24, 0xB5	; 181
    2314:	90 e0       	ldi	r25, 0x00	; 0
    2316:	9f 93       	push	r25
    2318:	8f 93       	push	r24
    231a:	0e 94 6b 1a 	call	0x34d6	; 0x34d6 <printf>
	lcd_2_strin();
    231e:	0e 94 20 1a 	call	0x3440	; 0x3440 <lcd_2_strin>
	printf("%s v   ",battery_voltage_string_current_value);
    2322:	1f 93       	push	r17
    2324:	0f 93       	push	r16
    2326:	88 ea       	ldi	r24, 0xA8	; 168
    2328:	90 e0       	ldi	r25, 0x00	; 0
    232a:	9f 93       	push	r25
    232c:	8f 93       	push	r24
    232e:	0e 94 6b 1a 	call	0x34d6	; 0x34d6 <printf>
	if(temperature.sig) printf("-%s ",temperature.string_current_value);
    2332:	2d b7       	in	r18, 0x3d	; 61
    2334:	3e b7       	in	r19, 0x3e	; 62
    2336:	28 5f       	subi	r18, 0xF8	; 248
    2338:	3f 4f       	sbci	r19, 0xFF	; 255
    233a:	0f b6       	in	r0, 0x3f	; 63
    233c:	f8 94       	cli
    233e:	3e bf       	out	0x3e, r19	; 62
    2340:	0f be       	out	0x3f, r0	; 63
    2342:	2d bf       	out	0x3d, r18	; 61
    2344:	f7 01       	movw	r30, r14
    2346:	85 8d       	ldd	r24, Z+29	; 0x1d
    2348:	96 8d       	ldd	r25, Z+30	; 0x1e
    234a:	89 2b       	or	r24, r25
    234c:	79 f0       	breq	.+30     	; 0x236c <main+0x3fc>
    234e:	8f e6       	ldi	r24, 0x6F	; 111
    2350:	91 e0       	ldi	r25, 0x01	; 1
    2352:	9f 93       	push	r25
    2354:	8f 93       	push	r24
    2356:	80 eb       	ldi	r24, 0xB0	; 176
    2358:	90 e0       	ldi	r25, 0x00	; 0
    235a:	9f 93       	push	r25
    235c:	8f 93       	push	r24
    235e:	0e 94 6b 1a 	call	0x34d6	; 0x34d6 <printf>
    2362:	0f 90       	pop	r0
    2364:	0f 90       	pop	r0
    2366:	0f 90       	pop	r0
    2368:	0f 90       	pop	r0
    236a:	0e c0       	rjmp	.+28     	; 0x2388 <main+0x418>
	else printf(" %s ",temperature.string_current_value);
    236c:	8f e6       	ldi	r24, 0x6F	; 111
    236e:	91 e0       	ldi	r25, 0x01	; 1
    2370:	9f 93       	push	r25
    2372:	8f 93       	push	r24
    2374:	8c eb       	ldi	r24, 0xBC	; 188
    2376:	90 e0       	ldi	r25, 0x00	; 0
    2378:	9f 93       	push	r25
    237a:	8f 93       	push	r24
    237c:	0e 94 6b 1a 	call	0x34d6	; 0x34d6 <printf>
    2380:	0f 90       	pop	r0
    2382:	0f 90       	pop	r0
    2384:	0f 90       	pop	r0
    2386:	0f 90       	pop	r0
	 	}else{
	 	  build_windou_mains_on();
 	}
 
//---------- test KEY ------------------------------------
if(key== _right){
    2388:	80 91 18 01 	lds	r24, 0x0118	; 0x800118 <key>
    238c:	87 31       	cpi	r24, 0x17	; 23
    238e:	29 f4       	brne	.+10     	; 0x239a <main+0x42a>
	state=SETING;
    2390:	80 e1       	ldi	r24, 0x10	; 16
    2392:	80 93 19 01 	sts	0x0119, r24	; 0x800119 <state>
	clr_key();
    2396:	0e 94 69 03 	call	0x6d2	; 0x6d2 <clr_key>
} 
// logic waite -----------------------------------------------------------------
if(time_rest_bat.status==EVENT) time_rest_bat.status=STOPPED;
    239a:	80 91 5a 01 	lds	r24, 0x015A	; 0x80015a <time_rest_bat+0x1a>
    239e:	82 30       	cpi	r24, 0x02	; 2
    23a0:	11 f4       	brne	.+4      	; 0x23a6 <main+0x436>
    23a2:	10 92 5a 01 	sts	0x015A, r1	; 0x80015a <time_rest_bat+0x1a>
if(time_rest_temperat.status==EVENT) time_rest_temperat.status=STOPPED;
    23a6:	80 91 b0 01 	lds	r24, 0x01B0	; 0x8001b0 <time_rest_temperat+0x1a>
    23aa:	82 30       	cpi	r24, 0x02	; 2
    23ac:	11 f4       	brne	.+4      	; 0x23b2 <main+0x442>
    23ae:	10 92 b0 01 	sts	0x01B0, r1	; 0x8001b0 <time_rest_temperat+0x1a>
// Test AC
if(PINA&0x20){
    23b2:	cd 9b       	sbis	0x19, 5	; 25
    23b4:	ea ce       	rjmp	.-556    	; 0x218a <main+0x21a>
	//AC OFF
	//Test Battery
	//if(battery_voltage_current_value_bin<battery_voltage_setp_value_low_bin)
	if(test_battery()==0)
    23b6:	0e 94 9f 0f 	call	0x1f3e	; 0x1f3e <test_battery>
    23ba:	81 11       	cpse	r24, r1
    23bc:	22 c0       	rjmp	.+68     	; 0x2402 <main+0x492>
	{
		//Battery NOT OK
		if(test_temperature())	//if((temperature.sig==1)||(temperature.current_value_bin<temperature.setp_value_hight_bin))
    23be:	0e 94 50 0f 	call	0x1ea0	; 0x1ea0 <test_temperature>
    23c2:	88 23       	and	r24, r24
    23c4:	71 f0       	breq	.+28     	; 0x23e2 <main+0x472>
		{
			//Temperature OK    Battery NOT OK
			if( test_runing_rest_timers()){
    23c6:	0e 94 8c 01 	call	0x318	; 0x318 <test_runing_rest_timers>
    23ca:	88 23       	and	r24, r24
    23cc:	21 f0       	breq	.+8      	; 0x23d6 <main+0x466>
				state=REST;
    23ce:	83 e0       	ldi	r24, 0x03	; 3
    23d0:	80 93 19 01 	sts	0x0119, r24	; 0x800119 <state>
    23d4:	da ce       	rjmp	.-588    	; 0x218a <main+0x21a>
				}else{
				start_timer_run_bat();
    23d6:	0e 94 97 01 	call	0x32e	; 0x32e <start_timer_run_bat>
				state=WORK;
    23da:	82 e0       	ldi	r24, 0x02	; 2
    23dc:	80 93 19 01 	sts	0x0119, r24	; 0x800119 <state>
    23e0:	d4 ce       	rjmp	.-600    	; 0x218a <main+0x21a>
			}
			}else{
			//Temperature NOT OK  Battery NOT OK
			if( test_runing_rest_timers()){
    23e2:	0e 94 8c 01 	call	0x318	; 0x318 <test_runing_rest_timers>
    23e6:	88 23       	and	r24, r24
    23e8:	21 f0       	breq	.+8      	; 0x23f2 <main+0x482>
				state=REST;
    23ea:	83 e0       	ldi	r24, 0x03	; 3
    23ec:	80 93 19 01 	sts	0x0119, r24	; 0x800119 <state>
    23f0:	cc ce       	rjmp	.-616    	; 0x218a <main+0x21a>
				}else{
				start_timer_run_bat();
    23f2:	0e 94 97 01 	call	0x32e	; 0x32e <start_timer_run_bat>
				start_timer_run_temperat();
    23f6:	0e 94 08 02 	call	0x410	; 0x410 <start_timer_run_temperat>
				state=WORK;
    23fa:	82 e0       	ldi	r24, 0x02	; 2
    23fc:	80 93 19 01 	sts	0x0119, r24	; 0x800119 <state>
    2400:	c4 ce       	rjmp	.-632    	; 0x218a <main+0x21a>
			}
		}
		
		}else{
		//Battery OK
		if(test_temperature())	//if((temperature.sig==1)||(temperature.current_value_bin<temperature.setp_value_hight_bin))
    2402:	0e 94 50 0f 	call	0x1ea0	; 0x1ea0 <test_temperature>
    2406:	81 11       	cpse	r24, r1
    2408:	c0 ce       	rjmp	.-640    	; 0x218a <main+0x21a>
			//Temperature OK   Battery OK
//			state=WAIT;
//			start_timer_wait();
			}else{
			//Temperature NOT OK   Battery OK
			if( test_runing_rest_timers()){
    240a:	0e 94 8c 01 	call	0x318	; 0x318 <test_runing_rest_timers>
    240e:	88 23       	and	r24, r24
    2410:	21 f0       	breq	.+8      	; 0x241a <main+0x4aa>
				state=REST;
    2412:	83 e0       	ldi	r24, 0x03	; 3
    2414:	80 93 19 01 	sts	0x0119, r24	; 0x800119 <state>
    2418:	b8 ce       	rjmp	.-656    	; 0x218a <main+0x21a>
				}else{
				start_timer_run_temperat();
    241a:	0e 94 08 02 	call	0x410	; 0x410 <start_timer_run_temperat>
				state=WORK;
    241e:	82 e0       	ldi	r24, 0x02	; 2
    2420:	80 93 19 01 	sts	0x0119, r24	; 0x800119 <state>
    2424:	b2 ce       	rjmp	.-668    	; 0x218a <main+0x21a>
} 
 
 
}else
//############################################################
if(state==WORK)
    2426:	80 91 19 01 	lds	r24, 0x0119	; 0x800119 <state>
    242a:	82 30       	cpi	r24, 0x02	; 2
    242c:	09 f0       	breq	.+2      	; 0x2430 <main+0x4c0>
    242e:	03 c1       	rjmp	.+518    	; 0x2636 <main+0x6c6>
	//	lcd_1_strin();
}
//------------------------------------------------------------------------------------------------------------------
static void build_windou_work(void)
{
	lcd_1_strin();
    2430:	0e 94 19 1a 	call	0x3432	; 0x3432 <lcd_1_strin>
	printf("Bat:%s ",battery_voltage_string_current_value);
    2434:	1f 93       	push	r17
    2436:	0f 93       	push	r16
    2438:	81 ec       	ldi	r24, 0xC1	; 193
    243a:	90 e0       	ldi	r25, 0x00	; 0
    243c:	9f 93       	push	r25
    243e:	8f 93       	push	r24
    2440:	0e 94 6b 1a 	call	0x34d6	; 0x34d6 <printf>
	if(temperature.sig) printf("-%s",temperature.string_current_value);
    2444:	0f 90       	pop	r0
    2446:	0f 90       	pop	r0
    2448:	0f 90       	pop	r0
    244a:	0f 90       	pop	r0
    244c:	f7 01       	movw	r30, r14
    244e:	85 8d       	ldd	r24, Z+29	; 0x1d
    2450:	96 8d       	ldd	r25, Z+30	; 0x1e
    2452:	89 2b       	or	r24, r25
    2454:	79 f0       	breq	.+30     	; 0x2474 <main+0x504>
    2456:	8f e6       	ldi	r24, 0x6F	; 111
    2458:	91 e0       	ldi	r25, 0x01	; 1
    245a:	9f 93       	push	r25
    245c:	8f 93       	push	r24
    245e:	89 ec       	ldi	r24, 0xC9	; 201
    2460:	90 e0       	ldi	r25, 0x00	; 0
    2462:	9f 93       	push	r25
    2464:	8f 93       	push	r24
    2466:	0e 94 6b 1a 	call	0x34d6	; 0x34d6 <printf>
    246a:	0f 90       	pop	r0
    246c:	0f 90       	pop	r0
    246e:	0f 90       	pop	r0
    2470:	0f 90       	pop	r0
    2472:	0e c0       	rjmp	.+28     	; 0x2490 <main+0x520>
	else printf(" %s",temperature.string_current_value);
    2474:	8f e6       	ldi	r24, 0x6F	; 111
    2476:	91 e0       	ldi	r25, 0x01	; 1
    2478:	9f 93       	push	r25
    247a:	8f 93       	push	r24
    247c:	8d ec       	ldi	r24, 0xCD	; 205
    247e:	90 e0       	ldi	r25, 0x00	; 0
    2480:	9f 93       	push	r25
    2482:	8f 93       	push	r24
    2484:	0e 94 6b 1a 	call	0x34d6	; 0x34d6 <printf>
    2488:	0f 90       	pop	r0
    248a:	0f 90       	pop	r0
    248c:	0f 90       	pop	r0
    248e:	0f 90       	pop	r0
	lcd_2_strin();
    2490:	0e 94 20 1a 	call	0x3440	; 0x3440 <lcd_2_strin>
	if(time_work_bat.status==1)	printf("Working:%s ",time_work_bat.string_time);
    2494:	80 91 94 01 	lds	r24, 0x0194	; 0x800194 <time_work_bat+0x1a>
    2498:	81 30       	cpi	r24, 0x01	; 1
    249a:	71 f4       	brne	.+28     	; 0x24b8 <main+0x548>
    249c:	87 e8       	ldi	r24, 0x87	; 135
    249e:	91 e0       	ldi	r25, 0x01	; 1
    24a0:	9f 93       	push	r25
    24a2:	8f 93       	push	r24
    24a4:	81 ed       	ldi	r24, 0xD1	; 209
    24a6:	90 e0       	ldi	r25, 0x00	; 0
    24a8:	9f 93       	push	r25
    24aa:	8f 93       	push	r24
    24ac:	0e 94 6b 1a 	call	0x34d6	; 0x34d6 <printf>
    24b0:	0f 90       	pop	r0
    24b2:	0f 90       	pop	r0
    24b4:	0f 90       	pop	r0
    24b6:	0f 90       	pop	r0
	if(time_work_temperat.status==1)	printf("Working:%s ",time_work_temperat.string_time);
    24b8:	80 91 3a 01 	lds	r24, 0x013A	; 0x80013a <time_work_temperat+0x1a>
    24bc:	81 30       	cpi	r24, 0x01	; 1
    24be:	71 f4       	brne	.+28     	; 0x24dc <main+0x56c>
    24c0:	8d e2       	ldi	r24, 0x2D	; 45
    24c2:	91 e0       	ldi	r25, 0x01	; 1
    24c4:	9f 93       	push	r25
    24c6:	8f 93       	push	r24
    24c8:	81 ed       	ldi	r24, 0xD1	; 209
    24ca:	90 e0       	ldi	r25, 0x00	; 0
    24cc:	9f 93       	push	r25
    24ce:	8f 93       	push	r24
    24d0:	0e 94 6b 1a 	call	0x34d6	; 0x34d6 <printf>
    24d4:	0f 90       	pop	r0
    24d6:	0f 90       	pop	r0
    24d8:	0f 90       	pop	r0
    24da:	0f 90       	pop	r0
	lcd_1_strin();
    24dc:	0e 94 19 1a 	call	0x3432	; 0x3432 <lcd_1_strin>
if(state==WORK)
{
	  build_windou_work();
	  //	  clr_blink();
	  //----------- test AC ------------------------------------
	  if(!(PINA&0x20)){
    24e0:	cd 99       	sbic	0x19, 5	; 25
    24e2:	07 c0       	rjmp	.+14     	; 0x24f2 <main+0x582>
		  state=WAIT;
    24e4:	81 e0       	ldi	r24, 0x01	; 1
    24e6:	80 93 19 01 	sts	0x0119, r24	; 0x800119 <state>
		  start_timer_wait();
    24ea:	0e 94 5b 03 	call	0x6b6	; 0x6b6 <start_timer_wait>
		  clr_key();
    24ee:	0e 94 69 03 	call	0x6d2	; 0x6d2 <clr_key>
	  }
	
//logic WORK -------------------------------------------------------------------
	// Test AC
	if(PINA&0x20){
    24f2:	cd 9b       	sbis	0x19, 5	; 25
    24f4:	8c c0       	rjmp	.+280    	; 0x260e <main+0x69e>
		//AC OFF
		if(time_work_bat.status==STOPPED){
    24f6:	80 91 94 01 	lds	r24, 0x0194	; 0x800194 <time_work_bat+0x1a>
    24fa:	81 11       	cpse	r24, r1
    24fc:	35 c0       	rjmp	.+106    	; 0x2568 <main+0x5f8>
			//timer_work_bat STOPPED
			if(time_work_temperat.status==STOPPED){
    24fe:	80 91 3a 01 	lds	r24, 0x013A	; 0x80013a <time_work_temperat+0x1a>
    2502:	81 11       	cpse	r24, r1
    2504:	0a c0       	rjmp	.+20     	; 0x251a <main+0x5aa>
				//timer_work_bat STOPPED    timer_run_temperat  STOPPED  ERROR
				time_work_bat.status=STOPPED;
    2506:	10 92 94 01 	sts	0x0194, r1	; 0x800194 <time_work_bat+0x1a>
				time_work_temperat.status=STOPPED;
    250a:	10 92 3a 01 	sts	0x013A, r1	; 0x80013a <time_work_temperat+0x1a>
				state=WAIT;
    250e:	81 e0       	ldi	r24, 0x01	; 1
    2510:	80 93 19 01 	sts	0x0119, r24	; 0x800119 <state>
				start_timer_wait();
    2514:	0e 94 5b 03 	call	0x6b6	; 0x6b6 <start_timer_wait>
    2518:	83 c0       	rjmp	.+262    	; 0x2620 <main+0x6b0>
				}else if(time_work_temperat.status==RUNING){
    251a:	81 30       	cpi	r24, 0x01	; 1
    251c:	21 f4       	brne	.+8      	; 0x2526 <main+0x5b6>
				//timer_work_bat STOPPED    time_work_temperat   RUNING
				state=WORK;
    251e:	82 e0       	ldi	r24, 0x02	; 2
    2520:	80 93 19 01 	sts	0x0119, r24	; 0x800119 <state>
    2524:	7d c0       	rjmp	.+250    	; 0x2620 <main+0x6b0>
				}else if(time_work_temperat.status==EVENT){
    2526:	82 30       	cpi	r24, 0x02	; 2
    2528:	09 f0       	breq	.+2      	; 0x252c <main+0x5bc>
    252a:	7a c0       	rjmp	.+244    	; 0x2620 <main+0x6b0>
				//timer_work_bat STOPPED    time_work_temperat   EVENT
				//Test Temperature
				if(test_temperature())	//if((temperature.sig==1)||(temperature.current_value_bin<temperature.setp_value_hight_bin))
    252c:	0e 94 50 0f 	call	0x1ea0	; 0x1ea0 <test_temperature>
    2530:	88 23       	and	r24, r24
    2532:	a1 f0       	breq	.+40     	; 0x255c <main+0x5ec>
				{
					//Temperature OK test battery
					//if(battery_voltage_current_value_bin<battery_voltage_setp_value_low_bin){
					if(test_battery()==0){
    2534:	0e 94 9f 0f 	call	0x1f3e	; 0x1f3e <test_battery>
    2538:	81 11       	cpse	r24, r1
    253a:	06 c0       	rjmp	.+12     	; 0x2548 <main+0x5d8>
						//battery NOT OK
						start_timer_run_bat();
    253c:	0e 94 97 01 	call	0x32e	; 0x32e <start_timer_run_bat>
						state=WORK;
    2540:	82 e0       	ldi	r24, 0x02	; 2
    2542:	80 93 19 01 	sts	0x0119, r24	; 0x800119 <state>
    2546:	6c c0       	rjmp	.+216    	; 0x2620 <main+0x6b0>
						}else{
						//battery OK
						start_timer_rest_temperat();
    2548:	0e 94 ea 02 	call	0x5d4	; 0x5d4 <start_timer_rest_temperat>
						time_work_bat.status=STOPPED;
    254c:	10 92 94 01 	sts	0x0194, r1	; 0x800194 <time_work_bat+0x1a>
						time_work_temperat.status=STOPPED;
    2550:	10 92 3a 01 	sts	0x013A, r1	; 0x80013a <time_work_temperat+0x1a>
						state=REST;
    2554:	83 e0       	ldi	r24, 0x03	; 3
    2556:	80 93 19 01 	sts	0x0119, r24	; 0x800119 <state>
    255a:	62 c0       	rjmp	.+196    	; 0x2620 <main+0x6b0>
					}
					}else{
					//Temperature NOT OK restart timer
					start_timer_run_temperat();
    255c:	0e 94 08 02 	call	0x410	; 0x410 <start_timer_run_temperat>
					state=WORK;
    2560:	82 e0       	ldi	r24, 0x02	; 2
    2562:	80 93 19 01 	sts	0x0119, r24	; 0x800119 <state>
    2566:	5c c0       	rjmp	.+184    	; 0x2620 <main+0x6b0>
				}
				}else{
				//error
			}
		
			}else if(time_work_bat.status==RUNING){
    2568:	81 30       	cpi	r24, 0x01	; 1
    256a:	21 f4       	brne	.+8      	; 0x2574 <main+0x604>
			state=WORK;
    256c:	82 e0       	ldi	r24, 0x02	; 2
    256e:	80 93 19 01 	sts	0x0119, r24	; 0x800119 <state>
    2572:	56 c0       	rjmp	.+172    	; 0x2620 <main+0x6b0>
			}else if(time_work_bat.status==EVENT){
    2574:	82 30       	cpi	r24, 0x02	; 2
    2576:	09 f0       	breq	.+2      	; 0x257a <main+0x60a>
    2578:	53 c0       	rjmp	.+166    	; 0x2620 <main+0x6b0>
					if(time_work_temperat.status==STOPPED){
    257a:	80 91 3a 01 	lds	r24, 0x013A	; 0x80013a <time_work_temperat+0x1a>
    257e:	81 11       	cpse	r24, r1
    2580:	1e c0       	rjmp	.+60     	; 0x25be <main+0x64e>
						//timer_run_bat EVET    timer_run_temperat  STOPPED
						//Test Battery
						//if(battery_voltage_current_value_bin<battery_voltage_setp_value_low_bin)
						if(test_battery()==0)
    2582:	0e 94 9f 0f 	call	0x1f3e	; 0x1f3e <test_battery>
    2586:	81 11       	cpse	r24, r1
    2588:	06 c0       	rjmp	.+12     	; 0x2596 <main+0x626>
						{
							//battery NOT OK
							start_timer_run_bat();
    258a:	0e 94 97 01 	call	0x32e	; 0x32e <start_timer_run_bat>
							state=WORK;
    258e:	82 e0       	ldi	r24, 0x02	; 2
    2590:	80 93 19 01 	sts	0x0119, r24	; 0x800119 <state>
    2594:	45 c0       	rjmp	.+138    	; 0x2620 <main+0x6b0>
						}else{
								//battery OK
								//Test Temperature
								if(test_temperature())	//if((temperature.sig==1)||(temperature.current_value_bin<temperature.setp_value_hight_bin))
    2596:	0e 94 50 0f 	call	0x1ea0	; 0x1ea0 <test_temperature>
    259a:	88 23       	and	r24, r24
    259c:	51 f0       	breq	.+20     	; 0x25b2 <main+0x642>
								{
									//temperat OK
									start_timer_rest_bat();
    259e:	0e 94 79 02 	call	0x4f2	; 0x4f2 <start_timer_rest_bat>
									time_work_bat.status=STOPPED;
    25a2:	10 92 94 01 	sts	0x0194, r1	; 0x800194 <time_work_bat+0x1a>
									time_work_temperat.status=STOPPED;
    25a6:	10 92 3a 01 	sts	0x013A, r1	; 0x80013a <time_work_temperat+0x1a>
									state=REST;
    25aa:	83 e0       	ldi	r24, 0x03	; 3
    25ac:	80 93 19 01 	sts	0x0119, r24	; 0x800119 <state>
    25b0:	37 c0       	rjmp	.+110    	; 0x2620 <main+0x6b0>
								}else{
										//temperat NOT OK
										start_timer_run_temperat();
    25b2:	0e 94 08 02 	call	0x410	; 0x410 <start_timer_run_temperat>
										state=WORK;
    25b6:	82 e0       	ldi	r24, 0x02	; 2
    25b8:	80 93 19 01 	sts	0x0119, r24	; 0x800119 <state>
    25bc:	31 c0       	rjmp	.+98     	; 0x2620 <main+0x6b0>
									}
							}
				}else if(time_work_temperat.status==RUNING){
    25be:	81 30       	cpi	r24, 0x01	; 1
    25c0:	21 f4       	brne	.+8      	; 0x25ca <main+0x65a>
						//timer_run_bat EVENT    time_run_temperat   RUNING
						state=WORK;
    25c2:	82 e0       	ldi	r24, 0x02	; 2
    25c4:	80 93 19 01 	sts	0x0119, r24	; 0x800119 <state>
    25c8:	2b c0       	rjmp	.+86     	; 0x2620 <main+0x6b0>
						}else if(time_work_temperat.status==EVENT)
    25ca:	82 30       	cpi	r24, 0x02	; 2
    25cc:	49 f5       	brne	.+82     	; 0x2620 <main+0x6b0>
								{
								//timer_run_bat EVENT    time_run_temperat   EVENT
								//Test Battery
								//if(battery_voltage_current_value_bin<battery_voltage_setp_value_low_bin){
								if(test_battery()==0){	
    25ce:	0e 94 9f 0f 	call	0x1f3e	; 0x1f3e <test_battery>
    25d2:	81 11       	cpse	r24, r1
    25d4:	06 c0       	rjmp	.+12     	; 0x25e2 <main+0x672>
									//battery NOT OK
									start_timer_run_bat();
    25d6:	0e 94 97 01 	call	0x32e	; 0x32e <start_timer_run_bat>
									state=WORK;
    25da:	82 e0       	ldi	r24, 0x02	; 2
    25dc:	80 93 19 01 	sts	0x0119, r24	; 0x800119 <state>
    25e0:	1f c0       	rjmp	.+62     	; 0x2620 <main+0x6b0>
								}else{
										//battery OK
										//Test Temperature
										if(test_temperature())	//if((temperature.sig==1)||(temperature.current_value_bin<temperature.setp_value_hight_bin))
    25e2:	0e 94 50 0f 	call	0x1ea0	; 0x1ea0 <test_temperature>
    25e6:	88 23       	and	r24, r24
    25e8:	61 f0       	breq	.+24     	; 0x2602 <main+0x692>
										{
											//temperat OK
											start_timer_rest_bat();
    25ea:	0e 94 79 02 	call	0x4f2	; 0x4f2 <start_timer_rest_bat>
											start_timer_rest_temperat();
    25ee:	0e 94 ea 02 	call	0x5d4	; 0x5d4 <start_timer_rest_temperat>
											time_work_bat.status=STOPPED;
    25f2:	10 92 94 01 	sts	0x0194, r1	; 0x800194 <time_work_bat+0x1a>
											time_work_temperat.status=STOPPED;
    25f6:	10 92 3a 01 	sts	0x013A, r1	; 0x80013a <time_work_temperat+0x1a>
											state=REST;
    25fa:	83 e0       	ldi	r24, 0x03	; 3
    25fc:	80 93 19 01 	sts	0x0119, r24	; 0x800119 <state>
    2600:	0f c0       	rjmp	.+30     	; 0x2620 <main+0x6b0>
										}else{
												//temperat NOT OK
												start_timer_run_temperat();
    2602:	0e 94 08 02 	call	0x410	; 0x410 <start_timer_run_temperat>
												state=WORK;
    2606:	82 e0       	ldi	r24, 0x02	; 2
    2608:	80 93 19 01 	sts	0x0119, r24	; 0x800119 <state>
    260c:	09 c0       	rjmp	.+18     	; 0x2620 <main+0x6b0>
									 }
						}else{
								//error
							 }
					}else{
							time_work_bat.status=STOPPED;
    260e:	10 92 94 01 	sts	0x0194, r1	; 0x800194 <time_work_bat+0x1a>
							time_work_temperat.status=STOPPED;
    2612:	10 92 3a 01 	sts	0x013A, r1	; 0x80013a <time_work_temperat+0x1a>
							state=WAIT;
    2616:	81 e0       	ldi	r24, 0x01	; 1
    2618:	80 93 19 01 	sts	0x0119, r24	; 0x800119 <state>
							start_timer_wait();
    261c:	0e 94 5b 03 	call	0x6b6	; 0x6b6 <start_timer_wait>
						}

	  //---------- test KEY ------------------------------------
	  if(key== _right){
    2620:	80 91 18 01 	lds	r24, 0x0118	; 0x800118 <key>
    2624:	87 31       	cpi	r24, 0x17	; 23
    2626:	09 f0       	breq	.+2      	; 0x262a <main+0x6ba>
    2628:	b0 cd       	rjmp	.-1184   	; 0x218a <main+0x21a>
		  state=SETING;
    262a:	80 e1       	ldi	r24, 0x10	; 16
    262c:	80 93 19 01 	sts	0x0119, r24	; 0x800119 <state>
		  clr_key();
    2630:	0e 94 69 03 	call	0x6d2	; 0x6d2 <clr_key>
    2634:	aa cd       	rjmp	.-1196   	; 0x218a <main+0x21a>
	  }	
}else
//############################################################
if(state==REST)
    2636:	80 91 19 01 	lds	r24, 0x0119	; 0x800119 <state>
    263a:	83 30       	cpi	r24, 0x03	; 3
    263c:	09 f0       	breq	.+2      	; 0x2640 <main+0x6d0>
    263e:	af c0       	rjmp	.+350    	; 0x279e <main+0x82e>
	lcd_1_strin();
}
//------------------------------------------------------------------------------------------------------------------
static void build_windou_rest(void)
{
	lcd_1_strin();
    2640:	0e 94 19 1a 	call	0x3432	; 0x3432 <lcd_1_strin>
	printf("Bat:%s ",battery_voltage_string_current_value);
    2644:	1f 93       	push	r17
    2646:	0f 93       	push	r16
    2648:	81 ec       	ldi	r24, 0xC1	; 193
    264a:	90 e0       	ldi	r25, 0x00	; 0
    264c:	9f 93       	push	r25
    264e:	8f 93       	push	r24
    2650:	0e 94 6b 1a 	call	0x34d6	; 0x34d6 <printf>
	if(temperature.sig) printf("-%s ",temperature.string_current_value);
    2654:	0f 90       	pop	r0
    2656:	0f 90       	pop	r0
    2658:	0f 90       	pop	r0
    265a:	0f 90       	pop	r0
    265c:	f7 01       	movw	r30, r14
    265e:	85 8d       	ldd	r24, Z+29	; 0x1d
    2660:	96 8d       	ldd	r25, Z+30	; 0x1e
    2662:	89 2b       	or	r24, r25
    2664:	79 f0       	breq	.+30     	; 0x2684 <main+0x714>
    2666:	8f e6       	ldi	r24, 0x6F	; 111
    2668:	91 e0       	ldi	r25, 0x01	; 1
    266a:	9f 93       	push	r25
    266c:	8f 93       	push	r24
    266e:	80 eb       	ldi	r24, 0xB0	; 176
    2670:	90 e0       	ldi	r25, 0x00	; 0
    2672:	9f 93       	push	r25
    2674:	8f 93       	push	r24
    2676:	0e 94 6b 1a 	call	0x34d6	; 0x34d6 <printf>
    267a:	0f 90       	pop	r0
    267c:	0f 90       	pop	r0
    267e:	0f 90       	pop	r0
    2680:	0f 90       	pop	r0
    2682:	0e c0       	rjmp	.+28     	; 0x26a0 <main+0x730>
	else printf(" %s ",temperature.string_current_value);
    2684:	8f e6       	ldi	r24, 0x6F	; 111
    2686:	91 e0       	ldi	r25, 0x01	; 1
    2688:	9f 93       	push	r25
    268a:	8f 93       	push	r24
    268c:	8c eb       	ldi	r24, 0xBC	; 188
    268e:	90 e0       	ldi	r25, 0x00	; 0
    2690:	9f 93       	push	r25
    2692:	8f 93       	push	r24
    2694:	0e 94 6b 1a 	call	0x34d6	; 0x34d6 <printf>
    2698:	0f 90       	pop	r0
    269a:	0f 90       	pop	r0
    269c:	0f 90       	pop	r0
    269e:	0f 90       	pop	r0
	lcd_2_strin();
    26a0:	0e 94 20 1a 	call	0x3440	; 0x3440 <lcd_2_strin>
	if(time_rest_bat.status==1)	printf("Resting:%s ",time_rest_bat.string_time);
    26a4:	80 91 5a 01 	lds	r24, 0x015A	; 0x80015a <time_rest_bat+0x1a>
    26a8:	81 30       	cpi	r24, 0x01	; 1
    26aa:	71 f4       	brne	.+28     	; 0x26c8 <main+0x758>
    26ac:	8d e4       	ldi	r24, 0x4D	; 77
    26ae:	91 e0       	ldi	r25, 0x01	; 1
    26b0:	9f 93       	push	r25
    26b2:	8f 93       	push	r24
    26b4:	8d ed       	ldi	r24, 0xDD	; 221
    26b6:	90 e0       	ldi	r25, 0x00	; 0
    26b8:	9f 93       	push	r25
    26ba:	8f 93       	push	r24
    26bc:	0e 94 6b 1a 	call	0x34d6	; 0x34d6 <printf>
    26c0:	0f 90       	pop	r0
    26c2:	0f 90       	pop	r0
    26c4:	0f 90       	pop	r0
    26c6:	0f 90       	pop	r0
	if(time_rest_temperat.status==1)	printf("Resting:%s ",time_rest_temperat.string_time);
    26c8:	80 91 b0 01 	lds	r24, 0x01B0	; 0x8001b0 <time_rest_temperat+0x1a>
    26cc:	81 30       	cpi	r24, 0x01	; 1
    26ce:	71 f4       	brne	.+28     	; 0x26ec <main+0x77c>
    26d0:	83 ea       	ldi	r24, 0xA3	; 163
    26d2:	91 e0       	ldi	r25, 0x01	; 1
    26d4:	9f 93       	push	r25
    26d6:	8f 93       	push	r24
    26d8:	8d ed       	ldi	r24, 0xDD	; 221
    26da:	90 e0       	ldi	r25, 0x00	; 0
    26dc:	9f 93       	push	r25
    26de:	8f 93       	push	r24
    26e0:	0e 94 6b 1a 	call	0x34d6	; 0x34d6 <printf>
    26e4:	0f 90       	pop	r0
    26e6:	0f 90       	pop	r0
    26e8:	0f 90       	pop	r0
    26ea:	0f 90       	pop	r0
	lcd_1_strin();
    26ec:	0e 94 19 1a 	call	0x3432	; 0x3432 <lcd_1_strin>
if(state==REST)
{
	  build_windou_rest();
	  //	  clr_blink();
 //----------- test AC ------------------------------------
	  if(!(PINA&0x20)){
    26f0:	cd 99       	sbic	0x19, 5	; 25
    26f2:	07 c0       	rjmp	.+14     	; 0x2702 <main+0x792>
		  state=WAIT;
    26f4:	81 e0       	ldi	r24, 0x01	; 1
    26f6:	80 93 19 01 	sts	0x0119, r24	; 0x800119 <state>
		  start_timer_wait();
    26fa:	0e 94 5b 03 	call	0x6b6	; 0x6b6 <start_timer_wait>
		  clr_key();
    26fe:	0e 94 69 03 	call	0x6d2	; 0x6d2 <clr_key>
	  }
 

//lognc REST -------------------------------------------------------------------
	// Test AC
	if(PINA&0x20){
    2702:	cd 9b       	sbis	0x19, 5	; 25
    2704:	3c c0       	rjmp	.+120    	; 0x277e <main+0x80e>
		//AC OFF
		if(time_rest_bat.status==STOPPED){
    2706:	80 91 5a 01 	lds	r24, 0x015A	; 0x80015a <time_rest_bat+0x1a>
    270a:	81 11       	cpse	r24, r1
    270c:	18 c0       	rjmp	.+48     	; 0x273e <main+0x7ce>
			if(time_rest_temperat.status==STOPPED){
    270e:	80 91 b0 01 	lds	r24, 0x01B0	; 0x8001b0 <time_rest_temperat+0x1a>
    2712:	81 11       	cpse	r24, r1
    2714:	06 c0       	rjmp	.+12     	; 0x2722 <main+0x7b2>
				state=WAIT;
    2716:	81 e0       	ldi	r24, 0x01	; 1
    2718:	80 93 19 01 	sts	0x0119, r24	; 0x800119 <state>
				start_timer_wait();
    271c:	0e 94 5b 03 	call	0x6b6	; 0x6b6 <start_timer_wait>
    2720:	33 c0       	rjmp	.+102    	; 0x2788 <main+0x818>
				}else if(time_rest_temperat.status==RUNING){
    2722:	81 30       	cpi	r24, 0x01	; 1
    2724:	21 f4       	brne	.+8      	; 0x272e <main+0x7be>
				state=REST;
    2726:	83 e0       	ldi	r24, 0x03	; 3
    2728:	80 93 19 01 	sts	0x0119, r24	; 0x800119 <state>
    272c:	2d c0       	rjmp	.+90     	; 0x2788 <main+0x818>
				}else if(time_rest_temperat.status==EVENT){
    272e:	82 30       	cpi	r24, 0x02	; 2
    2730:	59 f5       	brne	.+86     	; 0x2788 <main+0x818>
				state=WAIT;
    2732:	81 e0       	ldi	r24, 0x01	; 1
    2734:	80 93 19 01 	sts	0x0119, r24	; 0x800119 <state>
				start_timer_wait();
    2738:	0e 94 5b 03 	call	0x6b6	; 0x6b6 <start_timer_wait>
    273c:	25 c0       	rjmp	.+74     	; 0x2788 <main+0x818>
				}else{
				//error
					}
		
			}else if(time_rest_bat.status==RUNING){
    273e:	81 30       	cpi	r24, 0x01	; 1
    2740:	21 f4       	brne	.+8      	; 0x274a <main+0x7da>
						state=REST;
    2742:	83 e0       	ldi	r24, 0x03	; 3
    2744:	80 93 19 01 	sts	0x0119, r24	; 0x800119 <state>
    2748:	1f c0       	rjmp	.+62     	; 0x2788 <main+0x818>
					}else if(time_rest_bat.status==EVENT){
    274a:	82 30       	cpi	r24, 0x02	; 2
    274c:	e9 f4       	brne	.+58     	; 0x2788 <main+0x818>
								if(time_rest_temperat.status==STOPPED){
    274e:	80 91 b0 01 	lds	r24, 0x01B0	; 0x8001b0 <time_rest_temperat+0x1a>
    2752:	81 11       	cpse	r24, r1
    2754:	06 c0       	rjmp	.+12     	; 0x2762 <main+0x7f2>
								state=WAIT;
    2756:	81 e0       	ldi	r24, 0x01	; 1
    2758:	80 93 19 01 	sts	0x0119, r24	; 0x800119 <state>
								start_timer_wait();
    275c:	0e 94 5b 03 	call	0x6b6	; 0x6b6 <start_timer_wait>
    2760:	13 c0       	rjmp	.+38     	; 0x2788 <main+0x818>
							}else if(time_rest_temperat.status==RUNING){
    2762:	81 30       	cpi	r24, 0x01	; 1
    2764:	21 f4       	brne	.+8      	; 0x276e <main+0x7fe>
										state=REST;
    2766:	83 e0       	ldi	r24, 0x03	; 3
    2768:	80 93 19 01 	sts	0x0119, r24	; 0x800119 <state>
    276c:	0d c0       	rjmp	.+26     	; 0x2788 <main+0x818>
									}else if(time_rest_temperat.status==EVENT){
    276e:	82 30       	cpi	r24, 0x02	; 2
    2770:	59 f4       	brne	.+22     	; 0x2788 <main+0x818>
												state=WAIT;
    2772:	81 e0       	ldi	r24, 0x01	; 1
    2774:	80 93 19 01 	sts	0x0119, r24	; 0x800119 <state>
												start_timer_wait();
    2778:	0e 94 5b 03 	call	0x6b6	; 0x6b6 <start_timer_wait>
    277c:	05 c0       	rjmp	.+10     	; 0x2788 <main+0x818>
												}
								}else{
										//error
									}
						}else{
								state=WAIT;
    277e:	81 e0       	ldi	r24, 0x01	; 1
    2780:	80 93 19 01 	sts	0x0119, r24	; 0x800119 <state>
								start_timer_wait();
    2784:	0e 94 5b 03 	call	0x6b6	; 0x6b6 <start_timer_wait>
								}
								
	//---------- test KEY ------------------------------------
	if(key== _right){
    2788:	80 91 18 01 	lds	r24, 0x0118	; 0x800118 <key>
    278c:	87 31       	cpi	r24, 0x17	; 23
    278e:	09 f0       	breq	.+2      	; 0x2792 <main+0x822>
    2790:	fc cc       	rjmp	.-1544   	; 0x218a <main+0x21a>
		 state=SETING;
    2792:	80 e1       	ldi	r24, 0x10	; 16
    2794:	80 93 19 01 	sts	0x0119, r24	; 0x800119 <state>
		 clr_key();
    2798:	0e 94 69 03 	call	0x6d2	; 0x6d2 <clr_key>
    279c:	f6 cc       	rjmp	.-1556   	; 0x218a <main+0x21a>
	}									
}else
//############################################################
if(state==SETING)
    279e:	80 91 19 01 	lds	r24, 0x0119	; 0x800119 <state>
    27a2:	80 31       	cpi	r24, 0x10	; 16
    27a4:	09 f0       	breq	.+2      	; 0x27a8 <main+0x838>
    27a6:	41 c0       	rjmp	.+130    	; 0x282a <main+0x8ba>
	lcd_1_strin();
}
//------------------------------------------------------------------------------------------------------------------
static void build_menu_setings(void)
{
	lcd_1_strin();
    27a8:	0e 94 19 1a 	call	0x3432	; 0x3432 <lcd_1_strin>
	printf_P(PSTR("    SETINGS     "));
    27ac:	84 e7       	ldi	r24, 0x74	; 116
    27ae:	92 e0       	ldi	r25, 0x02	; 2
    27b0:	9f 93       	push	r25
    27b2:	8f 93       	push	r24
    27b4:	0e 94 81 1a 	call	0x3502	; 0x3502 <printf_P>
	lcd_2_strin();
    27b8:	0e 94 20 1a 	call	0x3440	; 0x3440 <lcd_2_strin>
	printf_P(PSTR("         enter->"));
    27bc:	83 e6       	ldi	r24, 0x63	; 99
    27be:	92 e0       	ldi	r25, 0x02	; 2
    27c0:	9f 93       	push	r25
    27c2:	8f 93       	push	r24
    27c4:	0e 94 81 1a 	call	0x3502	; 0x3502 <printf_P>
	lcd_1_strin();	
    27c8:	0e 94 19 1a 	call	0x3432	; 0x3432 <lcd_1_strin>
{
	  build_menu_setings();
	  //	  clr_blink();
	  
	  //---------- test KEY ------------------------------------
	  if(key== _right){
    27cc:	80 91 18 01 	lds	r24, 0x0118	; 0x800118 <key>
    27d0:	0f 90       	pop	r0
    27d2:	0f 90       	pop	r0
    27d4:	0f 90       	pop	r0
    27d6:	0f 90       	pop	r0
    27d8:	87 31       	cpi	r24, 0x17	; 23
    27da:	31 f4       	brne	.+12     	; 0x27e8 <main+0x878>
		  state=VOLTAGE_TIMER;
    27dc:	83 e1       	ldi	r24, 0x13	; 19
    27de:	80 93 19 01 	sts	0x0119, r24	; 0x800119 <state>
		  clr_key();
    27e2:	0e 94 69 03 	call	0x6d2	; 0x6d2 <clr_key>
    27e6:	d1 cc       	rjmp	.-1630   	; 0x218a <main+0x21a>
	  }else
	   if(key== _up){
    27e8:	80 91 18 01 	lds	r24, 0x0118	; 0x800118 <key>
    27ec:	8f 30       	cpi	r24, 0x0F	; 15
    27ee:	31 f4       	brne	.+12     	; 0x27fc <main+0x88c>
		  state=CONTROL;
    27f0:	82 e1       	ldi	r24, 0x12	; 18
    27f2:	80 93 19 01 	sts	0x0119, r24	; 0x800119 <state>
		  clr_key();
    27f6:	0e 94 69 03 	call	0x6d2	; 0x6d2 <clr_key>
    27fa:	c7 cc       	rjmp	.-1650   	; 0x218a <main+0x21a>
	  }else
	  if(key==_down){
    27fc:	80 91 18 01 	lds	r24, 0x0118	; 0x800118 <key>
    2800:	8d 31       	cpi	r24, 0x1D	; 29
    2802:	31 f4       	brne	.+12     	; 0x2810 <main+0x8a0>
		  state=MANUAL_START;
    2804:	81 e1       	ldi	r24, 0x11	; 17
    2806:	80 93 19 01 	sts	0x0119, r24	; 0x800119 <state>
		  clr_key();
    280a:	0e 94 69 03 	call	0x6d2	; 0x6d2 <clr_key>
    280e:	bd cc       	rjmp	.-1670   	; 0x218a <main+0x21a>
	  }else
	  if(key==_left){
    2810:	80 91 18 01 	lds	r24, 0x0118	; 0x800118 <key>
    2814:	8b 31       	cpi	r24, 0x1B	; 27
    2816:	09 f0       	breq	.+2      	; 0x281a <main+0x8aa>
    2818:	b8 cc       	rjmp	.-1680   	; 0x218a <main+0x21a>
		 state=WAIT;
    281a:	81 e0       	ldi	r24, 0x01	; 1
    281c:	80 93 19 01 	sts	0x0119, r24	; 0x800119 <state>
		 start_timer_wait();
    2820:	0e 94 5b 03 	call	0x6b6	; 0x6b6 <start_timer_wait>
		 clr_key(); 
    2824:	0e 94 69 03 	call	0x6d2	; 0x6d2 <clr_key>
    2828:	b0 cc       	rjmp	.-1696   	; 0x218a <main+0x21a>
	  }
	
}else
//############################################################
if(state==CONTROL)
    282a:	80 91 19 01 	lds	r24, 0x0119	; 0x800119 <state>
    282e:	82 31       	cpi	r24, 0x12	; 18
    2830:	09 f0       	breq	.+2      	; 0x2834 <main+0x8c4>
    2832:	43 c0       	rjmp	.+134    	; 0x28ba <main+0x94a>
	lcd_1_strin();	
}
//------------------------------------------------------------------------------------------------------------------
static void build_menu_control(void)
{
	lcd_1_strin();
    2834:	0e 94 19 1a 	call	0x3432	; 0x3432 <lcd_1_strin>
	printf_P(PSTR("    CONTROL     "));
    2838:	82 e5       	ldi	r24, 0x52	; 82
    283a:	92 e0       	ldi	r25, 0x02	; 2
    283c:	9f 93       	push	r25
    283e:	8f 93       	push	r24
    2840:	0e 94 81 1a 	call	0x3502	; 0x3502 <printf_P>
	lcd_2_strin();
    2844:	0e 94 20 1a 	call	0x3440	; 0x3440 <lcd_2_strin>
	printf_P(PSTR("         enter->"));
    2848:	81 e4       	ldi	r24, 0x41	; 65
    284a:	92 e0       	ldi	r25, 0x02	; 2
    284c:	9f 93       	push	r25
    284e:	8f 93       	push	r24
    2850:	0e 94 81 1a 	call	0x3502	; 0x3502 <printf_P>
	lcd_1_strin();	
    2854:	0e 94 19 1a 	call	0x3432	; 0x3432 <lcd_1_strin>
{
	build_menu_control();
	//	  clr_blink();
	
	//---------- test KEY ------------------------------------
	if(key== _right){
    2858:	80 91 18 01 	lds	r24, 0x0118	; 0x800118 <key>
    285c:	0f 90       	pop	r0
    285e:	0f 90       	pop	r0
    2860:	0f 90       	pop	r0
    2862:	0f 90       	pop	r0
    2864:	87 31       	cpi	r24, 0x17	; 23
    2866:	41 f4       	brne	.+16     	; 0x2878 <main+0x908>
		state=WAIT;
    2868:	81 e0       	ldi	r24, 0x01	; 1
    286a:	80 93 19 01 	sts	0x0119, r24	; 0x800119 <state>
		start_timer_wait();
    286e:	0e 94 5b 03 	call	0x6b6	; 0x6b6 <start_timer_wait>
		clr_key();
    2872:	0e 94 69 03 	call	0x6d2	; 0x6d2 <clr_key>
    2876:	89 cc       	rjmp	.-1774   	; 0x218a <main+0x21a>
	}else
	if(key== _up){
    2878:	80 91 18 01 	lds	r24, 0x0118	; 0x800118 <key>
    287c:	8f 30       	cpi	r24, 0x0F	; 15
    287e:	31 f4       	brne	.+12     	; 0x288c <main+0x91c>
		state=MANUAL_START;
    2880:	81 e1       	ldi	r24, 0x11	; 17
    2882:	80 93 19 01 	sts	0x0119, r24	; 0x800119 <state>
		clr_key();
    2886:	0e 94 69 03 	call	0x6d2	; 0x6d2 <clr_key>
    288a:	7f cc       	rjmp	.-1794   	; 0x218a <main+0x21a>
	}else
	if(key==_down){
    288c:	80 91 18 01 	lds	r24, 0x0118	; 0x800118 <key>
    2890:	8d 31       	cpi	r24, 0x1D	; 29
    2892:	31 f4       	brne	.+12     	; 0x28a0 <main+0x930>
		state=SETING;
    2894:	80 e1       	ldi	r24, 0x10	; 16
    2896:	80 93 19 01 	sts	0x0119, r24	; 0x800119 <state>
		clr_key();
    289a:	0e 94 69 03 	call	0x6d2	; 0x6d2 <clr_key>
    289e:	75 cc       	rjmp	.-1814   	; 0x218a <main+0x21a>
	}else
	if(key==_left){
    28a0:	80 91 18 01 	lds	r24, 0x0118	; 0x800118 <key>
    28a4:	8b 31       	cpi	r24, 0x1B	; 27
    28a6:	09 f0       	breq	.+2      	; 0x28aa <main+0x93a>
    28a8:	70 cc       	rjmp	.-1824   	; 0x218a <main+0x21a>
		state=WAIT;
    28aa:	81 e0       	ldi	r24, 0x01	; 1
    28ac:	80 93 19 01 	sts	0x0119, r24	; 0x800119 <state>
		start_timer_wait();
    28b0:	0e 94 5b 03 	call	0x6b6	; 0x6b6 <start_timer_wait>
		clr_key();
    28b4:	0e 94 69 03 	call	0x6d2	; 0x6d2 <clr_key>
    28b8:	68 cc       	rjmp	.-1840   	; 0x218a <main+0x21a>
	}
	
}else
//############################################################
if(state==MANUAL_START)
    28ba:	80 91 19 01 	lds	r24, 0x0119	; 0x800119 <state>
    28be:	81 31       	cpi	r24, 0x11	; 17
    28c0:	09 f0       	breq	.+2      	; 0x28c4 <main+0x954>
    28c2:	41 c0       	rjmp	.+130    	; 0x2946 <main+0x9d6>
	lcd_1_strin();	
}
//------------------------------------------------------------------------------------------------------------------
static void build_menu_manual_start(void)
{
	lcd_1_strin();
    28c4:	0e 94 19 1a 	call	0x3432	; 0x3432 <lcd_1_strin>
	printf_P(PSTR("  MANUAL START  "));
    28c8:	80 e3       	ldi	r24, 0x30	; 48
    28ca:	92 e0       	ldi	r25, 0x02	; 2
    28cc:	9f 93       	push	r25
    28ce:	8f 93       	push	r24
    28d0:	0e 94 81 1a 	call	0x3502	; 0x3502 <printf_P>
	lcd_2_strin();
    28d4:	0e 94 20 1a 	call	0x3440	; 0x3440 <lcd_2_strin>
	printf_P(PSTR("         enter->"));
    28d8:	8f e1       	ldi	r24, 0x1F	; 31
    28da:	92 e0       	ldi	r25, 0x02	; 2
    28dc:	9f 93       	push	r25
    28de:	8f 93       	push	r24
    28e0:	0e 94 81 1a 	call	0x3502	; 0x3502 <printf_P>
	lcd_1_strin();	
    28e4:	0e 94 19 1a 	call	0x3432	; 0x3432 <lcd_1_strin>
{
	build_menu_manual_start();
	//	  clr_blink();
	
	//---------- test KEY ------------------------------------
	if(key== _right){
    28e8:	80 91 18 01 	lds	r24, 0x0118	; 0x800118 <key>
    28ec:	0f 90       	pop	r0
    28ee:	0f 90       	pop	r0
    28f0:	0f 90       	pop	r0
    28f2:	0f 90       	pop	r0
    28f4:	87 31       	cpi	r24, 0x17	; 23
    28f6:	31 f4       	brne	.+12     	; 0x2904 <main+0x994>
		state=MANUALLY_STARTED;
    28f8:	83 e2       	ldi	r24, 0x23	; 35
    28fa:	80 93 19 01 	sts	0x0119, r24	; 0x800119 <state>
		clr_key();
    28fe:	0e 94 69 03 	call	0x6d2	; 0x6d2 <clr_key>
    2902:	43 cc       	rjmp	.-1914   	; 0x218a <main+0x21a>
	}else
	if(key== _up){
    2904:	80 91 18 01 	lds	r24, 0x0118	; 0x800118 <key>
    2908:	8f 30       	cpi	r24, 0x0F	; 15
    290a:	31 f4       	brne	.+12     	; 0x2918 <main+0x9a8>
		state=SETING;
    290c:	80 e1       	ldi	r24, 0x10	; 16
    290e:	80 93 19 01 	sts	0x0119, r24	; 0x800119 <state>
		clr_key();
    2912:	0e 94 69 03 	call	0x6d2	; 0x6d2 <clr_key>
    2916:	39 cc       	rjmp	.-1934   	; 0x218a <main+0x21a>
	}else
	if(key==_down){
    2918:	80 91 18 01 	lds	r24, 0x0118	; 0x800118 <key>
    291c:	8d 31       	cpi	r24, 0x1D	; 29
    291e:	31 f4       	brne	.+12     	; 0x292c <main+0x9bc>
		state=CONTROL;
    2920:	82 e1       	ldi	r24, 0x12	; 18
    2922:	80 93 19 01 	sts	0x0119, r24	; 0x800119 <state>
		clr_key();
    2926:	0e 94 69 03 	call	0x6d2	; 0x6d2 <clr_key>
    292a:	2f cc       	rjmp	.-1954   	; 0x218a <main+0x21a>
	}else
	if(key==_left){
    292c:	80 91 18 01 	lds	r24, 0x0118	; 0x800118 <key>
    2930:	8b 31       	cpi	r24, 0x1B	; 27
    2932:	09 f0       	breq	.+2      	; 0x2936 <main+0x9c6>
    2934:	2a cc       	rjmp	.-1964   	; 0x218a <main+0x21a>
		state=WAIT;
    2936:	81 e0       	ldi	r24, 0x01	; 1
    2938:	80 93 19 01 	sts	0x0119, r24	; 0x800119 <state>
		start_timer_wait();
    293c:	0e 94 5b 03 	call	0x6b6	; 0x6b6 <start_timer_wait>
		clr_key();
    2940:	0e 94 69 03 	call	0x6d2	; 0x6d2 <clr_key>
    2944:	22 cc       	rjmp	.-1980   	; 0x218a <main+0x21a>
	}
	
}else
//############################################################
if(state==VOLTAGE_TIMER)
    2946:	80 91 19 01 	lds	r24, 0x0119	; 0x800119 <state>
    294a:	83 31       	cpi	r24, 0x13	; 19
    294c:	09 f0       	breq	.+2      	; 0x2950 <main+0x9e0>
    294e:	47 c0       	rjmp	.+142    	; 0x29de <main+0xa6e>
	lcd_1_strin();	
}
//------------------------------------------------------------------------------------------------------------------
static void build_menu_voltage_timer(void)
{
	lcd_1_strin();
    2950:	0e 94 19 1a 	call	0x3432	; 0x3432 <lcd_1_strin>
	printf_P(PSTR(" Voltage Timer  "));
    2954:	8e e0       	ldi	r24, 0x0E	; 14
    2956:	92 e0       	ldi	r25, 0x02	; 2
    2958:	9f 93       	push	r25
    295a:	8f 93       	push	r24
    295c:	0e 94 81 1a 	call	0x3502	; 0x3502 <printf_P>
	lcd_2_strin();
    2960:	0e 94 20 1a 	call	0x3440	; 0x3440 <lcd_2_strin>
	printf_P(PSTR("<-exit   enter->"));
    2964:	8d ef       	ldi	r24, 0xFD	; 253
    2966:	91 e0       	ldi	r25, 0x01	; 1
    2968:	9f 93       	push	r25
    296a:	8f 93       	push	r24
    296c:	0e 94 81 1a 	call	0x3502	; 0x3502 <printf_P>
	lcd_1_strin();	
    2970:	0e 94 19 1a 	call	0x3432	; 0x3432 <lcd_1_strin>
{
	build_menu_voltage_timer();
	//	  clr_blink();
	
	//---------- test KEY ------------------------------------
	if(key== _right){
    2974:	80 91 18 01 	lds	r24, 0x0118	; 0x800118 <key>
    2978:	0f 90       	pop	r0
    297a:	0f 90       	pop	r0
    297c:	0f 90       	pop	r0
    297e:	0f 90       	pop	r0
    2980:	87 31       	cpi	r24, 0x17	; 23
    2982:	71 f4       	brne	.+28     	; 0x29a0 <main+0xa30>
		state=VOLTAGE_WORKING_TIME;
    2984:	8a e1       	ldi	r24, 0x1A	; 26
    2986:	80 93 19 01 	sts	0x0119, r24	; 0x800119 <state>
		build_menu_voltage_working_time();
    298a:	0e 94 a5 03 	call	0x74a	; 0x74a <build_menu_voltage_working_time>
		index_cursor=0;
    298e:	10 92 1a 01 	sts	0x011A, r1	; 0x80011a <index_cursor>
		blinc_cursor(index_cursor);
    2992:	80 91 1a 01 	lds	r24, 0x011A	; 0x80011a <index_cursor>
    2996:	0e 94 7d 04 	call	0x8fa	; 0x8fa <blinc_cursor>
		clr_key();
    299a:	0e 94 69 03 	call	0x6d2	; 0x6d2 <clr_key>
    299e:	f5 cb       	rjmp	.-2070   	; 0x218a <main+0x21a>
	}else
	if(key== _up){
    29a0:	80 91 18 01 	lds	r24, 0x0118	; 0x800118 <key>
    29a4:	8f 30       	cpi	r24, 0x0F	; 15
    29a6:	31 f4       	brne	.+12     	; 0x29b4 <main+0xa44>
		state=TEMPERATURE_HIGH;
    29a8:	88 e1       	ldi	r24, 0x18	; 24
    29aa:	80 93 19 01 	sts	0x0119, r24	; 0x800119 <state>
		clr_key();
    29ae:	0e 94 69 03 	call	0x6d2	; 0x6d2 <clr_key>
    29b2:	eb cb       	rjmp	.-2090   	; 0x218a <main+0x21a>
	}else
	if(key==_down){
    29b4:	80 91 18 01 	lds	r24, 0x0118	; 0x800118 <key>
    29b8:	8d 31       	cpi	r24, 0x1D	; 29
    29ba:	31 f4       	brne	.+12     	; 0x29c8 <main+0xa58>
		state=TEMPERATURE_TIMER;
    29bc:	84 e1       	ldi	r24, 0x14	; 20
    29be:	80 93 19 01 	sts	0x0119, r24	; 0x800119 <state>
		clr_key();
    29c2:	0e 94 69 03 	call	0x6d2	; 0x6d2 <clr_key>
    29c6:	e1 cb       	rjmp	.-2110   	; 0x218a <main+0x21a>
	}else
	if(key==_left){
    29c8:	80 91 18 01 	lds	r24, 0x0118	; 0x800118 <key>
    29cc:	8b 31       	cpi	r24, 0x1B	; 27
    29ce:	09 f0       	breq	.+2      	; 0x29d2 <main+0xa62>
    29d0:	dc cb       	rjmp	.-2120   	; 0x218a <main+0x21a>
		state=SETING;
    29d2:	80 e1       	ldi	r24, 0x10	; 16
    29d4:	80 93 19 01 	sts	0x0119, r24	; 0x800119 <state>
		clr_key();
    29d8:	0e 94 69 03 	call	0x6d2	; 0x6d2 <clr_key>
    29dc:	d6 cb       	rjmp	.-2132   	; 0x218a <main+0x21a>
	}
	
}else
//############################################################
if(state==TEMPERATURE_TIMER)
    29de:	80 91 19 01 	lds	r24, 0x0119	; 0x800119 <state>
    29e2:	84 31       	cpi	r24, 0x14	; 20
    29e4:	09 f0       	breq	.+2      	; 0x29e8 <main+0xa78>
    29e6:	47 c0       	rjmp	.+142    	; 0x2a76 <main+0xb06>
	lcd_1_strin();	
}
//------------------------------------------------------------------------------------------------------------------
static void build_menu_temperature_timer(void)
{
	lcd_1_strin();
    29e8:	0e 94 19 1a 	call	0x3432	; 0x3432 <lcd_1_strin>
	printf_P(PSTR(" Temper. Timer  "));
    29ec:	8c ee       	ldi	r24, 0xEC	; 236
    29ee:	91 e0       	ldi	r25, 0x01	; 1
    29f0:	9f 93       	push	r25
    29f2:	8f 93       	push	r24
    29f4:	0e 94 81 1a 	call	0x3502	; 0x3502 <printf_P>
	lcd_2_strin();
    29f8:	0e 94 20 1a 	call	0x3440	; 0x3440 <lcd_2_strin>
	printf_P(PSTR("<-exit   enter->"));
    29fc:	8b ed       	ldi	r24, 0xDB	; 219
    29fe:	91 e0       	ldi	r25, 0x01	; 1
    2a00:	9f 93       	push	r25
    2a02:	8f 93       	push	r24
    2a04:	0e 94 81 1a 	call	0x3502	; 0x3502 <printf_P>
	lcd_1_strin();	
    2a08:	0e 94 19 1a 	call	0x3432	; 0x3432 <lcd_1_strin>
{
	build_menu_temperature_timer();
	//	  clr_blink();
	
	//---------- test KEY ------------------------------------
	if(key== _right){
    2a0c:	80 91 18 01 	lds	r24, 0x0118	; 0x800118 <key>
    2a10:	0f 90       	pop	r0
    2a12:	0f 90       	pop	r0
    2a14:	0f 90       	pop	r0
    2a16:	0f 90       	pop	r0
    2a18:	87 31       	cpi	r24, 0x17	; 23
    2a1a:	71 f4       	brne	.+28     	; 0x2a38 <main+0xac8>
		state=TEMPERATURE_WORKING_TIME;
    2a1c:	8c e1       	ldi	r24, 0x1C	; 28
    2a1e:	80 93 19 01 	sts	0x0119, r24	; 0x800119 <state>
		build_menu_temperature_working_time();
    2a22:	0e 94 df 03 	call	0x7be	; 0x7be <build_menu_temperature_working_time>
		index_cursor=0;
    2a26:	10 92 1a 01 	sts	0x011A, r1	; 0x80011a <index_cursor>
		blinc_cursor(index_cursor);
    2a2a:	80 91 1a 01 	lds	r24, 0x011A	; 0x80011a <index_cursor>
    2a2e:	0e 94 7d 04 	call	0x8fa	; 0x8fa <blinc_cursor>
		clr_key();
    2a32:	0e 94 69 03 	call	0x6d2	; 0x6d2 <clr_key>
    2a36:	a9 cb       	rjmp	.-2222   	; 0x218a <main+0x21a>
	}else
	if(key== _up){
    2a38:	80 91 18 01 	lds	r24, 0x0118	; 0x800118 <key>
    2a3c:	8f 30       	cpi	r24, 0x0F	; 15
    2a3e:	31 f4       	brne	.+12     	; 0x2a4c <main+0xadc>
		state=VOLTAGE_TIMER;
    2a40:	83 e1       	ldi	r24, 0x13	; 19
    2a42:	80 93 19 01 	sts	0x0119, r24	; 0x800119 <state>
		clr_key();
    2a46:	0e 94 69 03 	call	0x6d2	; 0x6d2 <clr_key>
    2a4a:	9f cb       	rjmp	.-2242   	; 0x218a <main+0x21a>
	}else
	if(key==_down){
    2a4c:	80 91 18 01 	lds	r24, 0x0118	; 0x800118 <key>
    2a50:	8d 31       	cpi	r24, 0x1D	; 29
    2a52:	31 f4       	brne	.+12     	; 0x2a60 <main+0xaf0>
		state=GENERATOR;	//BATTERY_VOLTAGE;	
    2a54:	85 e1       	ldi	r24, 0x15	; 21
    2a56:	80 93 19 01 	sts	0x0119, r24	; 0x800119 <state>
		clr_key();
    2a5a:	0e 94 69 03 	call	0x6d2	; 0x6d2 <clr_key>
    2a5e:	95 cb       	rjmp	.-2262   	; 0x218a <main+0x21a>
	}else
	if(key==_left){
    2a60:	80 91 18 01 	lds	r24, 0x0118	; 0x800118 <key>
    2a64:	8b 31       	cpi	r24, 0x1B	; 27
    2a66:	09 f0       	breq	.+2      	; 0x2a6a <main+0xafa>
    2a68:	90 cb       	rjmp	.-2272   	; 0x218a <main+0x21a>
		state=SETING;
    2a6a:	80 e1       	ldi	r24, 0x10	; 16
    2a6c:	80 93 19 01 	sts	0x0119, r24	; 0x800119 <state>
		clr_key();
    2a70:	0e 94 69 03 	call	0x6d2	; 0x6d2 <clr_key>
    2a74:	8a cb       	rjmp	.-2284   	; 0x218a <main+0x21a>
	}
	
}else
//############################################################
if(state==GENERATOR)
    2a76:	80 91 19 01 	lds	r24, 0x0119	; 0x800119 <state>
    2a7a:	85 31       	cpi	r24, 0x15	; 21
    2a7c:	09 f0       	breq	.+2      	; 0x2a80 <main+0xb10>
    2a7e:	4f c0       	rjmp	.+158    	; 0x2b1e <main+0xbae>
	lcd_1_strin();	
}
//------------------------------------------------------------------------------------------------------------------
static void build_menu_generator(void)
{
	lcd_1_strin();
    2a80:	0e 94 19 1a 	call	0x3432	; 0x3432 <lcd_1_strin>
	printf_P(PSTR("   Generator    "));
    2a84:	8a ec       	ldi	r24, 0xCA	; 202
    2a86:	91 e0       	ldi	r25, 0x01	; 1
    2a88:	9f 93       	push	r25
    2a8a:	8f 93       	push	r24
    2a8c:	0e 94 81 1a 	call	0x3502	; 0x3502 <printf_P>
	lcd_2_strin();
    2a90:	0e 94 20 1a 	call	0x3440	; 0x3440 <lcd_2_strin>
	printf_P(PSTR("<-exit   enter->"));
    2a94:	89 eb       	ldi	r24, 0xB9	; 185
    2a96:	91 e0       	ldi	r25, 0x01	; 1
    2a98:	9f 93       	push	r25
    2a9a:	8f 93       	push	r24
    2a9c:	0e 94 81 1a 	call	0x3502	; 0x3502 <printf_P>
	lcd_1_strin();	
    2aa0:	0e 94 19 1a 	call	0x3432	; 0x3432 <lcd_1_strin>
{
	build_menu_generator();
	//	  clr_blink();
	
	//---------- test KEY ------------------------------------
	if(key== _right){
    2aa4:	80 91 18 01 	lds	r24, 0x0118	; 0x800118 <key>
    2aa8:	0f 90       	pop	r0
    2aaa:	0f 90       	pop	r0
    2aac:	0f 90       	pop	r0
    2aae:	0f 90       	pop	r0
    2ab0:	87 31       	cpi	r24, 0x17	; 23
    2ab2:	b1 f4       	brne	.+44     	; 0x2ae0 <main+0xb70>
		state=GENERATOR_TYPE;
    2ab4:	8e e1       	ldi	r24, 0x1E	; 30
    2ab6:	80 93 19 01 	sts	0x0119, r24	; 0x800119 <state>
		build_menu_generator_type();
    2aba:	0e 94 77 03 	call	0x6ee	; 0x6ee <build_menu_generator_type>
		if (type_generator==0)
    2abe:	80 91 95 01 	lds	r24, 0x0195	; 0x800195 <type_generator>
    2ac2:	81 11       	cpse	r24, r1
    2ac4:	03 c0       	rjmp	.+6      	; 0x2acc <main+0xb5c>
		{
			index_cursor=0;
    2ac6:	10 92 1a 01 	sts	0x011A, r1	; 0x80011a <index_cursor>
    2aca:	03 c0       	rjmp	.+6      	; 0x2ad2 <main+0xb62>
		} 
		else
		{
			index_cursor=10;
    2acc:	8a e0       	ldi	r24, 0x0A	; 10
    2ace:	80 93 1a 01 	sts	0x011A, r24	; 0x80011a <index_cursor>
		}
		blinc_cursor(index_cursor);
    2ad2:	80 91 1a 01 	lds	r24, 0x011A	; 0x80011a <index_cursor>
    2ad6:	0e 94 7d 04 	call	0x8fa	; 0x8fa <blinc_cursor>
		clr_key();
    2ada:	0e 94 69 03 	call	0x6d2	; 0x6d2 <clr_key>
    2ade:	55 cb       	rjmp	.-2390   	; 0x218a <main+0x21a>
	}else
	if(key== _up){
    2ae0:	80 91 18 01 	lds	r24, 0x0118	; 0x800118 <key>
    2ae4:	8f 30       	cpi	r24, 0x0F	; 15
    2ae6:	31 f4       	brne	.+12     	; 0x2af4 <main+0xb84>
		state=TEMPERATURE_TIMER;
    2ae8:	84 e1       	ldi	r24, 0x14	; 20
    2aea:	80 93 19 01 	sts	0x0119, r24	; 0x800119 <state>
		clr_key();
    2aee:	0e 94 69 03 	call	0x6d2	; 0x6d2 <clr_key>
    2af2:	4b cb       	rjmp	.-2410   	; 0x218a <main+0x21a>
	}else
	if(key==_down){
    2af4:	80 91 18 01 	lds	r24, 0x0118	; 0x800118 <key>
    2af8:	8d 31       	cpi	r24, 0x1D	; 29
    2afa:	31 f4       	brne	.+12     	; 0x2b08 <main+0xb98>
		state=BATTERY_VOLTAGE;
    2afc:	86 e1       	ldi	r24, 0x16	; 22
    2afe:	80 93 19 01 	sts	0x0119, r24	; 0x800119 <state>
		clr_key();
    2b02:	0e 94 69 03 	call	0x6d2	; 0x6d2 <clr_key>
    2b06:	41 cb       	rjmp	.-2430   	; 0x218a <main+0x21a>
	}else
	if(key==_left){
    2b08:	80 91 18 01 	lds	r24, 0x0118	; 0x800118 <key>
    2b0c:	8b 31       	cpi	r24, 0x1B	; 27
    2b0e:	09 f0       	breq	.+2      	; 0x2b12 <main+0xba2>
    2b10:	3c cb       	rjmp	.-2440   	; 0x218a <main+0x21a>
		state=SETING;
    2b12:	80 e1       	ldi	r24, 0x10	; 16
    2b14:	80 93 19 01 	sts	0x0119, r24	; 0x800119 <state>
		clr_key();
    2b18:	0e 94 69 03 	call	0x6d2	; 0x6d2 <clr_key>
    2b1c:	36 cb       	rjmp	.-2452   	; 0x218a <main+0x21a>
	}
	
}else
//############################################################
if(state==BATTERY_VOLTAGE)
    2b1e:	80 91 19 01 	lds	r24, 0x0119	; 0x800119 <state>
    2b22:	86 31       	cpi	r24, 0x16	; 22
    2b24:	09 f0       	breq	.+2      	; 0x2b28 <main+0xbb8>
    2b26:	55 c0       	rjmp	.+170    	; 0x2bd2 <main+0xc62>
	lcd_1_strin();	
}
//------------------------------------------------------------------------------------------------------------------
static void build_menu_battery_voltage(void)
{
	lcd_1_strin();
    2b28:	0e 94 19 1a 	call	0x3432	; 0x3432 <lcd_1_strin>
	printf_P(PSTR("Battery voltage "));
    2b2c:	df 92       	push	r13
    2b2e:	cf 92       	push	r12
    2b30:	0e 94 81 1a 	call	0x3502	; 0x3502 <printf_P>
	lcd_2_strin();
    2b34:	0e 94 20 1a 	call	0x3440	; 0x3440 <lcd_2_strin>
	printf_P(PSTR("<-exit   enter->"));
    2b38:	87 e9       	ldi	r24, 0x97	; 151
    2b3a:	91 e0       	ldi	r25, 0x01	; 1
    2b3c:	9f 93       	push	r25
    2b3e:	8f 93       	push	r24
    2b40:	0e 94 81 1a 	call	0x3502	; 0x3502 <printf_P>
	lcd_1_strin();	
    2b44:	0e 94 19 1a 	call	0x3432	; 0x3432 <lcd_1_strin>

		build_menu_battery_voltage();
		//	  clr_blink();
	
		//---------- test KEY ------------------------------------
		if(key== _right){
    2b48:	80 91 18 01 	lds	r24, 0x0118	; 0x800118 <key>
    2b4c:	0f 90       	pop	r0
    2b4e:	0f 90       	pop	r0
    2b50:	0f 90       	pop	r0
    2b52:	0f 90       	pop	r0
    2b54:	87 31       	cpi	r24, 0x17	; 23
    2b56:	f1 f4       	brne	.+60     	; 0x2b94 <main+0xc24>
			if(enable_battery_voltage){
    2b58:	80 91 3d 01 	lds	r24, 0x013D	; 0x80013d <enable_battery_voltage>
    2b5c:	88 23       	and	r24, r24
    2b5e:	71 f0       	breq	.+28     	; 0x2b7c <main+0xc0c>
				state=BATTERY_LOWER_LIMIT;
    2b60:	8f e1       	ldi	r24, 0x1F	; 31
    2b62:	80 93 19 01 	sts	0x0119, r24	; 0x800119 <state>
				build_menu_battery_lower_limit();
    2b66:	0e 94 19 04 	call	0x832	; 0x832 <build_menu_battery_lower_limit>
				index_cursor=0;
    2b6a:	10 92 1a 01 	sts	0x011A, r1	; 0x80011a <index_cursor>
				blinc_cursor(index_cursor);
    2b6e:	80 91 1a 01 	lds	r24, 0x011A	; 0x80011a <index_cursor>
    2b72:	0e 94 7d 04 	call	0x8fa	; 0x8fa <blinc_cursor>
				clr_key();
    2b76:	0e 94 69 03 	call	0x6d2	; 0x6d2 <clr_key>
    2b7a:	07 cb       	rjmp	.-2546   	; 0x218a <main+0x21a>
			}
			else{
				build_menu_setpoint_disabled();
    2b7c:	0e 94 be 0e 	call	0x1d7c	; 0x1d7c <build_menu_setpoint_disabled>
    2b80:	ff ef       	ldi	r31, 0xFF	; 255
    2b82:	23 ed       	ldi	r18, 0xD3	; 211
    2b84:	30 e3       	ldi	r19, 0x30	; 48
    2b86:	f1 50       	subi	r31, 0x01	; 1
    2b88:	20 40       	sbci	r18, 0x00	; 0
    2b8a:	30 40       	sbci	r19, 0x00	; 0
    2b8c:	e1 f7       	brne	.-8      	; 0x2b86 <main+0xc16>
    2b8e:	00 c0       	rjmp	.+0      	; 0x2b90 <main+0xc20>
    2b90:	00 00       	nop
    2b92:	fb ca       	rjmp	.-2570   	; 0x218a <main+0x21a>
				_delay_ms(1000);
				
			}
		}else
		if(key== _up){
    2b94:	80 91 18 01 	lds	r24, 0x0118	; 0x800118 <key>
    2b98:	8f 30       	cpi	r24, 0x0F	; 15
    2b9a:	31 f4       	brne	.+12     	; 0x2ba8 <main+0xc38>
			state=GENERATOR;	//TEMPERATURE_TIMER;
    2b9c:	85 e1       	ldi	r24, 0x15	; 21
    2b9e:	80 93 19 01 	sts	0x0119, r24	; 0x800119 <state>
			clr_key();
    2ba2:	0e 94 69 03 	call	0x6d2	; 0x6d2 <clr_key>
    2ba6:	f1 ca       	rjmp	.-2590   	; 0x218a <main+0x21a>
		}else
		if(key==_down){
    2ba8:	80 91 18 01 	lds	r24, 0x0118	; 0x800118 <key>
    2bac:	8d 31       	cpi	r24, 0x1D	; 29
    2bae:	31 f4       	brne	.+12     	; 0x2bbc <main+0xc4c>
			state=TEMPERATURE_LOW;
    2bb0:	87 e1       	ldi	r24, 0x17	; 23
    2bb2:	80 93 19 01 	sts	0x0119, r24	; 0x800119 <state>
			clr_key();
    2bb6:	0e 94 69 03 	call	0x6d2	; 0x6d2 <clr_key>
    2bba:	e7 ca       	rjmp	.-2610   	; 0x218a <main+0x21a>
		}else
		if(key==_left){
    2bbc:	80 91 18 01 	lds	r24, 0x0118	; 0x800118 <key>
    2bc0:	8b 31       	cpi	r24, 0x1B	; 27
    2bc2:	09 f0       	breq	.+2      	; 0x2bc6 <main+0xc56>
    2bc4:	e2 ca       	rjmp	.-2620   	; 0x218a <main+0x21a>
			state=SETING;
    2bc6:	80 e1       	ldi	r24, 0x10	; 16
    2bc8:	80 93 19 01 	sts	0x0119, r24	; 0x800119 <state>
			clr_key();
    2bcc:	0e 94 69 03 	call	0x6d2	; 0x6d2 <clr_key>
    2bd0:	dc ca       	rjmp	.-2632   	; 0x218a <main+0x21a>
	

	
}else
//############################################################
if(state==TEMPERATURE_LOW)
    2bd2:	80 91 19 01 	lds	r24, 0x0119	; 0x800119 <state>
    2bd6:	87 31       	cpi	r24, 0x17	; 23
    2bd8:	09 f0       	breq	.+2      	; 0x2bdc <main+0xc6c>
    2bda:	53 c0       	rjmp	.+166    	; 0x2c82 <main+0xd12>
	lcd_1_strin();	
}
//------------------------------------------------------------------------------------------------------------------
static void build_menu_temperature_low(void)
{
	lcd_1_strin();
    2bdc:	0e 94 19 1a 	call	0x3432	; 0x3432 <lcd_1_strin>
	printf_P(PSTR("Low  temperature"));
    2be0:	bf 92       	push	r11
    2be2:	af 92       	push	r10
    2be4:	0e 94 81 1a 	call	0x3502	; 0x3502 <printf_P>
	lcd_2_strin();
    2be8:	0e 94 20 1a 	call	0x3440	; 0x3440 <lcd_2_strin>
	printf_P(PSTR("<-exit   enter->"));
    2bec:	9f 92       	push	r9
    2bee:	8f 92       	push	r8
    2bf0:	0e 94 81 1a 	call	0x3502	; 0x3502 <printf_P>
	lcd_1_strin();	
    2bf4:	0e 94 19 1a 	call	0x3432	; 0x3432 <lcd_1_strin>
{
	build_menu_temperature_low();
	//	  clr_blink();
	
	//---------- test KEY ------------------------------------
	if(key== _right){
    2bf8:	80 91 18 01 	lds	r24, 0x0118	; 0x800118 <key>
    2bfc:	0f 90       	pop	r0
    2bfe:	0f 90       	pop	r0
    2c00:	0f 90       	pop	r0
    2c02:	0f 90       	pop	r0
    2c04:	87 31       	cpi	r24, 0x17	; 23
    2c06:	f1 f4       	brne	.+60     	; 0x2c44 <main+0xcd4>
		if(temperature.enable_low){
    2c08:	f7 01       	movw	r30, r14
    2c0a:	80 81       	ld	r24, Z
    2c0c:	88 23       	and	r24, r24
    2c0e:	71 f0       	breq	.+28     	; 0x2c2c <main+0xcbc>
			state=TEMPERATURE_LOWER_LIMIT;
    2c10:	80 e2       	ldi	r24, 0x20	; 32
    2c12:	80 93 19 01 	sts	0x0119, r24	; 0x800119 <state>
			build_menu_temperature_lower_limit();
    2c16:	0e 94 36 04 	call	0x86c	; 0x86c <build_menu_temperature_lower_limit>
			index_cursor=0;
    2c1a:	10 92 1a 01 	sts	0x011A, r1	; 0x80011a <index_cursor>
			blinc_cursor(index_cursor);
    2c1e:	80 91 1a 01 	lds	r24, 0x011A	; 0x80011a <index_cursor>
    2c22:	0e 94 7d 04 	call	0x8fa	; 0x8fa <blinc_cursor>
			clr_key();
    2c26:	0e 94 69 03 	call	0x6d2	; 0x6d2 <clr_key>
    2c2a:	af ca       	rjmp	.-2722   	; 0x218a <main+0x21a>
		}
		else{
				build_menu_setpoint_disabled();
    2c2c:	0e 94 be 0e 	call	0x1d7c	; 0x1d7c <build_menu_setpoint_disabled>
    2c30:	ff ef       	ldi	r31, 0xFF	; 255
    2c32:	23 ed       	ldi	r18, 0xD3	; 211
    2c34:	30 e3       	ldi	r19, 0x30	; 48
    2c36:	f1 50       	subi	r31, 0x01	; 1
    2c38:	20 40       	sbci	r18, 0x00	; 0
    2c3a:	30 40       	sbci	r19, 0x00	; 0
    2c3c:	e1 f7       	brne	.-8      	; 0x2c36 <main+0xcc6>
    2c3e:	00 c0       	rjmp	.+0      	; 0x2c40 <main+0xcd0>
    2c40:	00 00       	nop
    2c42:	a3 ca       	rjmp	.-2746   	; 0x218a <main+0x21a>
				_delay_ms(1000);
		}
	}else
	if(key== _up){
    2c44:	80 91 18 01 	lds	r24, 0x0118	; 0x800118 <key>
    2c48:	8f 30       	cpi	r24, 0x0F	; 15
    2c4a:	31 f4       	brne	.+12     	; 0x2c58 <main+0xce8>
		state=BATTERY_VOLTAGE;
    2c4c:	86 e1       	ldi	r24, 0x16	; 22
    2c4e:	80 93 19 01 	sts	0x0119, r24	; 0x800119 <state>
		clr_key();
    2c52:	0e 94 69 03 	call	0x6d2	; 0x6d2 <clr_key>
    2c56:	99 ca       	rjmp	.-2766   	; 0x218a <main+0x21a>
	}else
	if(key==_down){
    2c58:	80 91 18 01 	lds	r24, 0x0118	; 0x800118 <key>
    2c5c:	8d 31       	cpi	r24, 0x1D	; 29
    2c5e:	31 f4       	brne	.+12     	; 0x2c6c <main+0xcfc>
		state=TEMPERATURE_HIGH;
    2c60:	88 e1       	ldi	r24, 0x18	; 24
    2c62:	80 93 19 01 	sts	0x0119, r24	; 0x800119 <state>
		clr_key();
    2c66:	0e 94 69 03 	call	0x6d2	; 0x6d2 <clr_key>
    2c6a:	8f ca       	rjmp	.-2786   	; 0x218a <main+0x21a>
	}else
	if(key==_left){
    2c6c:	80 91 18 01 	lds	r24, 0x0118	; 0x800118 <key>
    2c70:	8b 31       	cpi	r24, 0x1B	; 27
    2c72:	09 f0       	breq	.+2      	; 0x2c76 <main+0xd06>
    2c74:	8a ca       	rjmp	.-2796   	; 0x218a <main+0x21a>
		state=SETING;
    2c76:	80 e1       	ldi	r24, 0x10	; 16
    2c78:	80 93 19 01 	sts	0x0119, r24	; 0x800119 <state>
		clr_key();
    2c7c:	0e 94 69 03 	call	0x6d2	; 0x6d2 <clr_key>
    2c80:	84 ca       	rjmp	.-2808   	; 0x218a <main+0x21a>
	}
	
}else
//############################################################
if(state==TEMPERATURE_HIGH)
    2c82:	80 91 19 01 	lds	r24, 0x0119	; 0x800119 <state>
    2c86:	88 31       	cpi	r24, 0x18	; 24
    2c88:	09 f0       	breq	.+2      	; 0x2c8c <main+0xd1c>
    2c8a:	53 c0       	rjmp	.+166    	; 0x2d32 <main+0xdc2>
	lcd_1_strin();	
}
//------------------------------------------------------------------------------------------------------------------
static void build_menu_temperature_hight(void)
{
	lcd_1_strin();
    2c8c:	0e 94 19 1a 	call	0x3432	; 0x3432 <lcd_1_strin>
	printf_P(PSTR("Hight temperat. "));
    2c90:	7f 92       	push	r7
    2c92:	6f 92       	push	r6
    2c94:	0e 94 81 1a 	call	0x3502	; 0x3502 <printf_P>
	lcd_2_strin();
    2c98:	0e 94 20 1a 	call	0x3440	; 0x3440 <lcd_2_strin>
	printf_P(PSTR("<-exit   enter->"));
    2c9c:	5f 92       	push	r5
    2c9e:	4f 92       	push	r4
    2ca0:	0e 94 81 1a 	call	0x3502	; 0x3502 <printf_P>
	lcd_1_strin();
    2ca4:	0e 94 19 1a 	call	0x3432	; 0x3432 <lcd_1_strin>
{
	build_menu_temperature_hight();
	//	  clr_blink();
	
	//---------- test KEY ------------------------------------
	if(key== _right){
    2ca8:	80 91 18 01 	lds	r24, 0x0118	; 0x800118 <key>
    2cac:	0f 90       	pop	r0
    2cae:	0f 90       	pop	r0
    2cb0:	0f 90       	pop	r0
    2cb2:	0f 90       	pop	r0
    2cb4:	87 31       	cpi	r24, 0x17	; 23
    2cb6:	f1 f4       	brne	.+60     	; 0x2cf4 <main+0xd84>
		if(temperature.enable_hight){
    2cb8:	f7 01       	movw	r30, r14
    2cba:	81 81       	ldd	r24, Z+1	; 0x01
    2cbc:	88 23       	and	r24, r24
    2cbe:	71 f0       	breq	.+28     	; 0x2cdc <main+0xd6c>
			state=TEMPERATURE_HIGH_LIMIT;
    2cc0:	81 e2       	ldi	r24, 0x21	; 33
    2cc2:	80 93 19 01 	sts	0x0119, r24	; 0x800119 <state>
			build_menu_temperature_high_limit();
    2cc6:	0e 94 53 04 	call	0x8a6	; 0x8a6 <build_menu_temperature_high_limit>
			index_cursor=0;
    2cca:	10 92 1a 01 	sts	0x011A, r1	; 0x80011a <index_cursor>
			blinc_cursor(index_cursor);
    2cce:	80 91 1a 01 	lds	r24, 0x011A	; 0x80011a <index_cursor>
    2cd2:	0e 94 7d 04 	call	0x8fa	; 0x8fa <blinc_cursor>
			clr_key();
    2cd6:	0e 94 69 03 	call	0x6d2	; 0x6d2 <clr_key>
    2cda:	57 ca       	rjmp	.-2898   	; 0x218a <main+0x21a>
		}
		else{
				build_menu_setpoint_disabled();
    2cdc:	0e 94 be 0e 	call	0x1d7c	; 0x1d7c <build_menu_setpoint_disabled>
    2ce0:	ff ef       	ldi	r31, 0xFF	; 255
    2ce2:	23 ed       	ldi	r18, 0xD3	; 211
    2ce4:	30 e3       	ldi	r19, 0x30	; 48
    2ce6:	f1 50       	subi	r31, 0x01	; 1
    2ce8:	20 40       	sbci	r18, 0x00	; 0
    2cea:	30 40       	sbci	r19, 0x00	; 0
    2cec:	e1 f7       	brne	.-8      	; 0x2ce6 <main+0xd76>
    2cee:	00 c0       	rjmp	.+0      	; 0x2cf0 <main+0xd80>
    2cf0:	00 00       	nop
    2cf2:	4b ca       	rjmp	.-2922   	; 0x218a <main+0x21a>
				_delay_ms(1000);			
		}
	}else
	if(key== _up){
    2cf4:	80 91 18 01 	lds	r24, 0x0118	; 0x800118 <key>
    2cf8:	8f 30       	cpi	r24, 0x0F	; 15
    2cfa:	31 f4       	brne	.+12     	; 0x2d08 <main+0xd98>
		state=TEMPERATURE_LOW;
    2cfc:	87 e1       	ldi	r24, 0x17	; 23
    2cfe:	80 93 19 01 	sts	0x0119, r24	; 0x800119 <state>
		clr_key();
    2d02:	0e 94 69 03 	call	0x6d2	; 0x6d2 <clr_key>
    2d06:	41 ca       	rjmp	.-2942   	; 0x218a <main+0x21a>
	}else
	if(key==_down){
    2d08:	80 91 18 01 	lds	r24, 0x0118	; 0x800118 <key>
    2d0c:	8d 31       	cpi	r24, 0x1D	; 29
    2d0e:	31 f4       	brne	.+12     	; 0x2d1c <main+0xdac>
		state=VOLTAGE_TIMER;
    2d10:	83 e1       	ldi	r24, 0x13	; 19
    2d12:	80 93 19 01 	sts	0x0119, r24	; 0x800119 <state>
		clr_key();
    2d16:	0e 94 69 03 	call	0x6d2	; 0x6d2 <clr_key>
    2d1a:	37 ca       	rjmp	.-2962   	; 0x218a <main+0x21a>
	}else
	if(key==_left){
    2d1c:	80 91 18 01 	lds	r24, 0x0118	; 0x800118 <key>
    2d20:	8b 31       	cpi	r24, 0x1B	; 27
    2d22:	09 f0       	breq	.+2      	; 0x2d26 <main+0xdb6>
    2d24:	32 ca       	rjmp	.-2972   	; 0x218a <main+0x21a>
		state=SETING;
    2d26:	80 e1       	ldi	r24, 0x10	; 16
    2d28:	80 93 19 01 	sts	0x0119, r24	; 0x800119 <state>
		clr_key();
    2d2c:	0e 94 69 03 	call	0x6d2	; 0x6d2 <clr_key>
    2d30:	2c ca       	rjmp	.-2984   	; 0x218a <main+0x21a>
	
}else

//############################################################
//############################################################
if(state==VOLTAGE_WORKING_TIME)
    2d32:	80 91 19 01 	lds	r24, 0x0119	; 0x800119 <state>
    2d36:	8a 31       	cpi	r24, 0x1A	; 26
    2d38:	21 f5       	brne	.+72     	; 0x2d82 <main+0xe12>
{
	//build_menu_voltage_working_time();
	//	  clr_blink();
	
	//---------- test KEY ------------------------------------
uint8_t k=control_key_time(&time_work_bat.string_setp_time[0]);
    2d3a:	8a e7       	ldi	r24, 0x7A	; 122
    2d3c:	91 e0       	ldi	r25, 0x01	; 1
    2d3e:	0e 94 a1 09 	call	0x1342	; 0x1342 <control_key_time>

	if (k==1)
    2d42:	81 30       	cpi	r24, 0x01	; 1
    2d44:	31 f4       	brne	.+12     	; 0x2d52 <main+0xde2>
	{
		state=VOLTAGE_TIMER;
    2d46:	83 e1       	ldi	r24, 0x13	; 19
    2d48:	80 93 19 01 	sts	0x0119, r24	; 0x800119 <state>
		clr_blink();
    2d4c:	0e 94 d2 04 	call	0x9a4	; 0x9a4 <clr_blink>
    2d50:	1c ca       	rjmp	.-3016   	; 0x218a <main+0x21a>
	}
	if (k==2)
    2d52:	82 30       	cpi	r24, 0x02	; 2
    2d54:	61 f4       	brne	.+24     	; 0x2d6e <main+0xdfe>
	{
		state=VOLTAGE_RESTING_TIME;
    2d56:	8b e1       	ldi	r24, 0x1B	; 27
    2d58:	80 93 19 01 	sts	0x0119, r24	; 0x800119 <state>
		index_cursor=0;
    2d5c:	10 92 1a 01 	sts	0x011A, r1	; 0x80011a <index_cursor>
		build_menu_voltage_resting_time();
    2d60:	0e 94 c2 03 	call	0x784	; 0x784 <build_menu_voltage_resting_time>
		blinc_cursor(index_cursor);
    2d64:	80 91 1a 01 	lds	r24, 0x011A	; 0x80011a <index_cursor>
    2d68:	0e 94 7d 04 	call	0x8fa	; 0x8fa <blinc_cursor>
    2d6c:	0e ca       	rjmp	.-3044   	; 0x218a <main+0x21a>
	}
	if(k==3){
    2d6e:	83 30       	cpi	r24, 0x03	; 3
    2d70:	09 f0       	breq	.+2      	; 0x2d74 <main+0xe04>
    2d72:	0b ca       	rjmp	.-3050   	; 0x218a <main+0x21a>
		build_menu_voltage_working_time();
    2d74:	0e 94 a5 03 	call	0x74a	; 0x74a <build_menu_voltage_working_time>
		blinc_cursor(index_cursor);
    2d78:	80 91 1a 01 	lds	r24, 0x011A	; 0x80011a <index_cursor>
    2d7c:	0e 94 7d 04 	call	0x8fa	; 0x8fa <blinc_cursor>
    2d80:	04 ca       	rjmp	.-3064   	; 0x218a <main+0x21a>
	}
	
}else
//############################################################
if(state==VOLTAGE_RESTING_TIME)
    2d82:	80 91 19 01 	lds	r24, 0x0119	; 0x800119 <state>
    2d86:	8b 31       	cpi	r24, 0x1B	; 27
    2d88:	59 f5       	brne	.+86     	; 0x2de0 <main+0xe70>
{
	//build_menu_voltage_resting_time();
	//	  clr_blink();
	
	//---------- test KEY ------------------------------------
uint8_t	k=control_key_time(&time_rest_bat.string_setp_time[0]);
    2d8a:	80 e4       	ldi	r24, 0x40	; 64
    2d8c:	91 e0       	ldi	r25, 0x01	; 1
    2d8e:	0e 94 a1 09 	call	0x1342	; 0x1342 <control_key_time>
	if (k==1)
    2d92:	81 30       	cpi	r24, 0x01	; 1
    2d94:	69 f4       	brne	.+26     	; 0x2db0 <main+0xe40>
	{
		state=VOLTAGE_WORKING_TIME;
    2d96:	8a e1       	ldi	r24, 0x1A	; 26
    2d98:	80 93 19 01 	sts	0x0119, r24	; 0x800119 <state>
		build_menu_voltage_working_time();
    2d9c:	0e 94 a5 03 	call	0x74a	; 0x74a <build_menu_voltage_working_time>
		index_cursor=4;
    2da0:	84 e0       	ldi	r24, 0x04	; 4
    2da2:	80 93 1a 01 	sts	0x011A, r24	; 0x80011a <index_cursor>
		//clr_blink();
		blinc_cursor(index_cursor);
    2da6:	80 91 1a 01 	lds	r24, 0x011A	; 0x80011a <index_cursor>
    2daa:	0e 94 7d 04 	call	0x8fa	; 0x8fa <blinc_cursor>
    2dae:	ed c9       	rjmp	.-3110   	; 0x218a <main+0x21a>
		
	}
	if (k==2)
    2db0:	82 30       	cpi	r24, 0x02	; 2
    2db2:	61 f4       	brne	.+24     	; 0x2dcc <main+0xe5c>
	{
		state=VOLTAGE_WORKING_TIME;
    2db4:	8a e1       	ldi	r24, 0x1A	; 26
    2db6:	80 93 19 01 	sts	0x0119, r24	; 0x800119 <state>
		build_menu_voltage_working_time();
    2dba:	0e 94 a5 03 	call	0x74a	; 0x74a <build_menu_voltage_working_time>
		index_cursor=0;
    2dbe:	10 92 1a 01 	sts	0x011A, r1	; 0x80011a <index_cursor>
		//clr_blink();
		blinc_cursor(index_cursor);
    2dc2:	80 91 1a 01 	lds	r24, 0x011A	; 0x80011a <index_cursor>
    2dc6:	0e 94 7d 04 	call	0x8fa	; 0x8fa <blinc_cursor>
    2dca:	df c9       	rjmp	.-3138   	; 0x218a <main+0x21a>
		
	}
	if(k==3){
    2dcc:	83 30       	cpi	r24, 0x03	; 3
    2dce:	09 f0       	breq	.+2      	; 0x2dd2 <main+0xe62>
    2dd0:	dc c9       	rjmp	.-3144   	; 0x218a <main+0x21a>
		build_menu_voltage_resting_time();
    2dd2:	0e 94 c2 03 	call	0x784	; 0x784 <build_menu_voltage_resting_time>
		blinc_cursor(index_cursor);
    2dd6:	80 91 1a 01 	lds	r24, 0x011A	; 0x80011a <index_cursor>
    2dda:	0e 94 7d 04 	call	0x8fa	; 0x8fa <blinc_cursor>
    2dde:	d5 c9       	rjmp	.-3158   	; 0x218a <main+0x21a>
	}
}else
//############################################################
if(state==TEMPERATURE_WORKING_TIME)
    2de0:	80 91 19 01 	lds	r24, 0x0119	; 0x800119 <state>
    2de4:	8c 31       	cpi	r24, 0x1C	; 28
    2de6:	21 f5       	brne	.+72     	; 0x2e30 <main+0xec0>
{
	//build_menu_temperature_working_time();
	//	  clr_blink();
	
	//---------- test KEY ------------------------------------
uint8_t	k=control_key_time(&time_work_temperat.string_setp_time[0]);
    2de8:	80 e2       	ldi	r24, 0x20	; 32
    2dea:	91 e0       	ldi	r25, 0x01	; 1
    2dec:	0e 94 a1 09 	call	0x1342	; 0x1342 <control_key_time>
		if (k==1)
    2df0:	81 30       	cpi	r24, 0x01	; 1
    2df2:	31 f4       	brne	.+12     	; 0x2e00 <main+0xe90>
		{
			state=TEMPERATURE_TIMER;
    2df4:	84 e1       	ldi	r24, 0x14	; 20
    2df6:	80 93 19 01 	sts	0x0119, r24	; 0x800119 <state>
			clr_blink();
    2dfa:	0e 94 d2 04 	call	0x9a4	; 0x9a4 <clr_blink>
    2dfe:	c5 c9       	rjmp	.-3190   	; 0x218a <main+0x21a>
		}
		if (k==2)
    2e00:	82 30       	cpi	r24, 0x02	; 2
    2e02:	61 f4       	brne	.+24     	; 0x2e1c <main+0xeac>
		{
			state=TEMPERATURE_RESTING_TIME;
    2e04:	8d e1       	ldi	r24, 0x1D	; 29
    2e06:	80 93 19 01 	sts	0x0119, r24	; 0x800119 <state>
			build_menu_temperature_resting_time();
    2e0a:	0e 94 fc 03 	call	0x7f8	; 0x7f8 <build_menu_temperature_resting_time>
			index_cursor=0;
    2e0e:	10 92 1a 01 	sts	0x011A, r1	; 0x80011a <index_cursor>
			//clr_blink();
			blinc_cursor(index_cursor);
    2e12:	80 91 1a 01 	lds	r24, 0x011A	; 0x80011a <index_cursor>
    2e16:	0e 94 7d 04 	call	0x8fa	; 0x8fa <blinc_cursor>
    2e1a:	b7 c9       	rjmp	.-3218   	; 0x218a <main+0x21a>
		}
		if(k==3){
    2e1c:	83 30       	cpi	r24, 0x03	; 3
    2e1e:	09 f0       	breq	.+2      	; 0x2e22 <main+0xeb2>
    2e20:	b4 c9       	rjmp	.-3224   	; 0x218a <main+0x21a>
			build_menu_temperature_working_time();
    2e22:	0e 94 df 03 	call	0x7be	; 0x7be <build_menu_temperature_working_time>
			blinc_cursor(index_cursor);
    2e26:	80 91 1a 01 	lds	r24, 0x011A	; 0x80011a <index_cursor>
    2e2a:	0e 94 7d 04 	call	0x8fa	; 0x8fa <blinc_cursor>
    2e2e:	ad c9       	rjmp	.-3238   	; 0x218a <main+0x21a>
		}
		
		
}else
//############################################################
if(state==TEMPERATURE_RESTING_TIME)
    2e30:	80 91 19 01 	lds	r24, 0x0119	; 0x800119 <state>
    2e34:	8d 31       	cpi	r24, 0x1D	; 29
    2e36:	59 f5       	brne	.+86     	; 0x2e8e <main+0xf1e>
{
	//build_menu_temperature_resting_time();
	//	  clr_blink();
	
	//---------- test KEY ------------------------------------
uint8_t k =	control_key_time(&time_rest_temperat.string_setp_time[0]);
    2e38:	86 e9       	ldi	r24, 0x96	; 150
    2e3a:	91 e0       	ldi	r25, 0x01	; 1
    2e3c:	0e 94 a1 09 	call	0x1342	; 0x1342 <control_key_time>
		if (k==1)
    2e40:	81 30       	cpi	r24, 0x01	; 1
    2e42:	69 f4       	brne	.+26     	; 0x2e5e <main+0xeee>
		{
			state=TEMPERATURE_WORKING_TIME;
    2e44:	8c e1       	ldi	r24, 0x1C	; 28
    2e46:	80 93 19 01 	sts	0x0119, r24	; 0x800119 <state>
			build_menu_temperature_working_time();
    2e4a:	0e 94 df 03 	call	0x7be	; 0x7be <build_menu_temperature_working_time>
			index_cursor=4;
    2e4e:	84 e0       	ldi	r24, 0x04	; 4
    2e50:	80 93 1a 01 	sts	0x011A, r24	; 0x80011a <index_cursor>
			//clr_blink();
			blinc_cursor(index_cursor);
    2e54:	80 91 1a 01 	lds	r24, 0x011A	; 0x80011a <index_cursor>
    2e58:	0e 94 7d 04 	call	0x8fa	; 0x8fa <blinc_cursor>
    2e5c:	96 c9       	rjmp	.-3284   	; 0x218a <main+0x21a>
		}
		if (k==2)
    2e5e:	82 30       	cpi	r24, 0x02	; 2
    2e60:	61 f4       	brne	.+24     	; 0x2e7a <main+0xf0a>
		{
			state=TEMPERATURE_WORKING_TIME;
    2e62:	8c e1       	ldi	r24, 0x1C	; 28
    2e64:	80 93 19 01 	sts	0x0119, r24	; 0x800119 <state>
			build_menu_temperature_working_time();
    2e68:	0e 94 df 03 	call	0x7be	; 0x7be <build_menu_temperature_working_time>
			index_cursor=0;
    2e6c:	10 92 1a 01 	sts	0x011A, r1	; 0x80011a <index_cursor>
			//clr_blink();
			blinc_cursor(index_cursor);
    2e70:	80 91 1a 01 	lds	r24, 0x011A	; 0x80011a <index_cursor>
    2e74:	0e 94 7d 04 	call	0x8fa	; 0x8fa <blinc_cursor>
    2e78:	88 c9       	rjmp	.-3312   	; 0x218a <main+0x21a>
			
		}
		if(k==3){
    2e7a:	83 30       	cpi	r24, 0x03	; 3
    2e7c:	09 f0       	breq	.+2      	; 0x2e80 <main+0xf10>
    2e7e:	85 c9       	rjmp	.-3318   	; 0x218a <main+0x21a>
			build_menu_temperature_resting_time();
    2e80:	0e 94 fc 03 	call	0x7f8	; 0x7f8 <build_menu_temperature_resting_time>
			blinc_cursor(index_cursor);
    2e84:	80 91 1a 01 	lds	r24, 0x011A	; 0x80011a <index_cursor>
    2e88:	0e 94 7d 04 	call	0x8fa	; 0x8fa <blinc_cursor>
    2e8c:	7e c9       	rjmp	.-3332   	; 0x218a <main+0x21a>
		}
}else
//############################################################
if(state==GENERATOR_TYPE)
    2e8e:	80 91 19 01 	lds	r24, 0x0119	; 0x800119 <state>
    2e92:	8e 31       	cpi	r24, 0x1E	; 30
    2e94:	09 f0       	breq	.+2      	; 0x2e98 <main+0xf28>
    2e96:	5e c0       	rjmp	.+188    	; 0x2f54 <main+0xfe4>
{
	//build_menu_generator_type();
	//	  clr_blink();
	
	//---------- test KEY ------------------------------------
	if(key== _right){
    2e98:	80 91 18 01 	lds	r24, 0x0118	; 0x800118 <key>
    2e9c:	87 31       	cpi	r24, 0x17	; 23
    2e9e:	71 f4       	brne	.+28     	; 0x2ebc <main+0xf4c>
		if(index_cursor==0) index_cursor=10 ;
    2ea0:	80 91 1a 01 	lds	r24, 0x011A	; 0x80011a <index_cursor>
    2ea4:	81 11       	cpse	r24, r1
    2ea6:	03 c0       	rjmp	.+6      	; 0x2eae <main+0xf3e>
    2ea8:	8a e0       	ldi	r24, 0x0A	; 10
    2eaa:	80 93 1a 01 	sts	0x011A, r24	; 0x80011a <index_cursor>
		build_menu_generator_type();
    2eae:	0e 94 77 03 	call	0x6ee	; 0x6ee <build_menu_generator_type>
		blinc_cursor(index_cursor);
    2eb2:	80 91 1a 01 	lds	r24, 0x011A	; 0x80011a <index_cursor>
    2eb6:	0e 94 7d 04 	call	0x8fa	; 0x8fa <blinc_cursor>
    2eba:	67 c9       	rjmp	.-3378   	; 0x218a <main+0x21a>
		
	}else
	if(key== _up){
    2ebc:	80 91 18 01 	lds	r24, 0x0118	; 0x800118 <key>
    2ec0:	8f 30       	cpi	r24, 0x0F	; 15
    2ec2:	09 f4       	brne	.+2      	; 0x2ec6 <main+0xf56>
    2ec4:	62 c9       	rjmp	.-3388   	; 0x218a <main+0x21a>
		
	}else
	if(key==_down){
    2ec6:	80 91 18 01 	lds	r24, 0x0118	; 0x800118 <key>
    2eca:	8d 31       	cpi	r24, 0x1D	; 29
    2ecc:	39 f5       	brne	.+78     	; 0x2f1c <main+0xfac>
		if(index_cursor==0){
    2ece:	80 91 1a 01 	lds	r24, 0x011A	; 0x80011a <index_cursor>
    2ed2:	81 11       	cpse	r24, r1
    2ed4:	02 c0       	rjmp	.+4      	; 0x2eda <main+0xf6a>
			type_generator=0;
    2ed6:	10 92 95 01 	sts	0x0195, r1	; 0x800195 <type_generator>
		}
		if (index_cursor==10)
    2eda:	80 91 1a 01 	lds	r24, 0x011A	; 0x80011a <index_cursor>
    2ede:	8a 30       	cpi	r24, 0x0A	; 10
    2ee0:	19 f4       	brne	.+6      	; 0x2ee8 <main+0xf78>
		{
			type_generator=1;
    2ee2:	81 e0       	ldi	r24, 0x01	; 1
    2ee4:	80 93 95 01 	sts	0x0195, r24	; 0x800195 <type_generator>
		}
		store_setp();
    2ee8:	0e 94 d9 04 	call	0x9b2	; 0x9b2 <store_setp>
		read_eeprom_setp();
    2eec:	0e 94 ed 06 	call	0xdda	; 0xdda <read_eeprom_setp>
		clr_blink();
    2ef0:	0e 94 d2 04 	call	0x9a4	; 0x9a4 <clr_blink>
		build_windou_stored();
    2ef4:	0e 94 8e 03 	call	0x71c	; 0x71c <build_windou_stored>
		wdt_reset ();
    2ef8:	a8 95       	wdr
    2efa:	8f ef       	ldi	r24, 0xFF	; 255
    2efc:	93 ed       	ldi	r25, 0xD3	; 211
    2efe:	e0 e3       	ldi	r30, 0x30	; 48
    2f00:	81 50       	subi	r24, 0x01	; 1
    2f02:	90 40       	sbci	r25, 0x00	; 0
    2f04:	e0 40       	sbci	r30, 0x00	; 0
    2f06:	e1 f7       	brne	.-8      	; 0x2f00 <main+0xf90>
    2f08:	00 c0       	rjmp	.+0      	; 0x2f0a <main+0xf9a>
    2f0a:	00 00       	nop
		_delay_ms(1000);
		wdt_reset ();
    2f0c:	a8 95       	wdr
		build_menu_generator_type();
    2f0e:	0e 94 77 03 	call	0x6ee	; 0x6ee <build_menu_generator_type>
		blinc_cursor(index_cursor);
    2f12:	80 91 1a 01 	lds	r24, 0x011A	; 0x80011a <index_cursor>
    2f16:	0e 94 7d 04 	call	0x8fa	; 0x8fa <blinc_cursor>
    2f1a:	37 c9       	rjmp	.-3474   	; 0x218a <main+0x21a>
	}else
	if(key==_left){
    2f1c:	80 91 18 01 	lds	r24, 0x0118	; 0x800118 <key>
    2f20:	8b 31       	cpi	r24, 0x1B	; 27
    2f22:	09 f0       	breq	.+2      	; 0x2f26 <main+0xfb6>
    2f24:	32 c9       	rjmp	.-3484   	; 0x218a <main+0x21a>
		if(index_cursor==0){
    2f26:	80 91 1a 01 	lds	r24, 0x011A	; 0x80011a <index_cursor>
    2f2a:	81 11       	cpse	r24, r1
    2f2c:	05 c0       	rjmp	.+10     	; 0x2f38 <main+0xfc8>
			state=GENERATOR;
    2f2e:	85 e1       	ldi	r24, 0x15	; 21
    2f30:	80 93 19 01 	sts	0x0119, r24	; 0x800119 <state>
			clr_blink();
    2f34:	0e 94 d2 04 	call	0x9a4	; 0x9a4 <clr_blink>
		}
		if (index_cursor==10)
    2f38:	80 91 1a 01 	lds	r24, 0x011A	; 0x80011a <index_cursor>
    2f3c:	8a 30       	cpi	r24, 0x0A	; 10
    2f3e:	09 f0       	breq	.+2      	; 0x2f42 <main+0xfd2>
    2f40:	24 c9       	rjmp	.-3512   	; 0x218a <main+0x21a>
		{
			index_cursor=0;
    2f42:	10 92 1a 01 	sts	0x011A, r1	; 0x80011a <index_cursor>
			build_menu_generator_type();
    2f46:	0e 94 77 03 	call	0x6ee	; 0x6ee <build_menu_generator_type>
			blinc_cursor(index_cursor);
    2f4a:	80 91 1a 01 	lds	r24, 0x011A	; 0x80011a <index_cursor>
    2f4e:	0e 94 7d 04 	call	0x8fa	; 0x8fa <blinc_cursor>
    2f52:	1b c9       	rjmp	.-3530   	; 0x218a <main+0x21a>
		}
	}
	
}else
//############################################################
if(state==BATTERY_LOWER_LIMIT)
    2f54:	80 91 19 01 	lds	r24, 0x0119	; 0x800119 <state>
    2f58:	8f 31       	cpi	r24, 0x1F	; 31
    2f5a:	21 f5       	brne	.+72     	; 0x2fa4 <main+0x1034>
{
	//build_menu_battery_lower_limit();
	//	  clr_blink();
	
	//---------- test KEY ------------------------------------
uint8_t k =	control_key_val(&battery_voltage_string_setp_value_low[0]);
    2f5c:	81 eb       	ldi	r24, 0xB1	; 177
    2f5e:	91 e0       	ldi	r25, 0x01	; 1
    2f60:	0e 94 72 0a 	call	0x14e4	; 0x14e4 <control_key_val>
		if (k==1)
    2f64:	81 30       	cpi	r24, 0x01	; 1
    2f66:	31 f4       	brne	.+12     	; 0x2f74 <main+0x1004>
		{
			state=BATTERY_VOLTAGE;
    2f68:	86 e1       	ldi	r24, 0x16	; 22
    2f6a:	80 93 19 01 	sts	0x0119, r24	; 0x800119 <state>
			clr_blink();
    2f6e:	0e 94 d2 04 	call	0x9a4	; 0x9a4 <clr_blink>
    2f72:	0b c9       	rjmp	.-3562   	; 0x218a <main+0x21a>
			
		}
		if (k==2)
    2f74:	82 30       	cpi	r24, 0x02	; 2
    2f76:	61 f4       	brne	.+24     	; 0x2f90 <main+0x1020>
		{
			state=BATTERY_LOWER_LIMIT;
    2f78:	8f e1       	ldi	r24, 0x1F	; 31
    2f7a:	80 93 19 01 	sts	0x0119, r24	; 0x800119 <state>
			build_menu_battery_lower_limit();
    2f7e:	0e 94 19 04 	call	0x832	; 0x832 <build_menu_battery_lower_limit>
			//clr_blink();
			index_cursor=0;
    2f82:	10 92 1a 01 	sts	0x011A, r1	; 0x80011a <index_cursor>
			blinc_cursor(index_cursor);
    2f86:	80 91 1a 01 	lds	r24, 0x011A	; 0x80011a <index_cursor>
    2f8a:	0e 94 7d 04 	call	0x8fa	; 0x8fa <blinc_cursor>
    2f8e:	fd c8       	rjmp	.-3590   	; 0x218a <main+0x21a>
		}
		if(k==3)
    2f90:	83 30       	cpi	r24, 0x03	; 3
    2f92:	09 f0       	breq	.+2      	; 0x2f96 <main+0x1026>
    2f94:	fa c8       	rjmp	.-3596   	; 0x218a <main+0x21a>
		{
			build_menu_battery_lower_limit();
    2f96:	0e 94 19 04 	call	0x832	; 0x832 <build_menu_battery_lower_limit>
			blinc_cursor(index_cursor);
    2f9a:	80 91 1a 01 	lds	r24, 0x011A	; 0x80011a <index_cursor>
    2f9e:	0e 94 7d 04 	call	0x8fa	; 0x8fa <blinc_cursor>
    2fa2:	f3 c8       	rjmp	.-3610   	; 0x218a <main+0x21a>
		}
}else
//############################################################
if(state==TEMPERATURE_LOWER_LIMIT)
    2fa4:	80 91 19 01 	lds	r24, 0x0119	; 0x800119 <state>
    2fa8:	80 32       	cpi	r24, 0x20	; 32
    2faa:	09 f5       	brne	.+66     	; 0x2fee <main+0x107e>
{
	//build_menu_temperature_lower_limit();
	//	  clr_blink();
	
	//---------- test KEY ------------------------------------
uint8_t k =	control_key_val(&temperature.string_setp_value_low[0]);
    2fac:	86 e6       	ldi	r24, 0x66	; 102
    2fae:	91 e0       	ldi	r25, 0x01	; 1
    2fb0:	0e 94 72 0a 	call	0x14e4	; 0x14e4 <control_key_val>
		if (k==1)
    2fb4:	81 30       	cpi	r24, 0x01	; 1
    2fb6:	31 f4       	brne	.+12     	; 0x2fc4 <main+0x1054>
		{
			state=TEMPERATURE_LOW;
    2fb8:	87 e1       	ldi	r24, 0x17	; 23
    2fba:	80 93 19 01 	sts	0x0119, r24	; 0x800119 <state>
			clr_blink();
    2fbe:	0e 94 d2 04 	call	0x9a4	; 0x9a4 <clr_blink>
    2fc2:	e3 c8       	rjmp	.-3642   	; 0x218a <main+0x21a>
			
		}
		if (k==2)
    2fc4:	82 30       	cpi	r24, 0x02	; 2
    2fc6:	49 f4       	brne	.+18     	; 0x2fda <main+0x106a>
		{
			
			build_menu_temperature_lower_limit();
    2fc8:	0e 94 36 04 	call	0x86c	; 0x86c <build_menu_temperature_lower_limit>
			index_cursor=0;
    2fcc:	10 92 1a 01 	sts	0x011A, r1	; 0x80011a <index_cursor>
			//clr_blink();
			blinc_cursor(index_cursor);
    2fd0:	80 91 1a 01 	lds	r24, 0x011A	; 0x80011a <index_cursor>
    2fd4:	0e 94 7d 04 	call	0x8fa	; 0x8fa <blinc_cursor>
    2fd8:	d8 c8       	rjmp	.-3664   	; 0x218a <main+0x21a>
		}
		if(k==3)
    2fda:	83 30       	cpi	r24, 0x03	; 3
    2fdc:	09 f0       	breq	.+2      	; 0x2fe0 <main+0x1070>
    2fde:	d5 c8       	rjmp	.-3670   	; 0x218a <main+0x21a>
		{
			build_menu_temperature_lower_limit();
    2fe0:	0e 94 36 04 	call	0x86c	; 0x86c <build_menu_temperature_lower_limit>
			blinc_cursor(index_cursor);
    2fe4:	80 91 1a 01 	lds	r24, 0x011A	; 0x80011a <index_cursor>
    2fe8:	0e 94 7d 04 	call	0x8fa	; 0x8fa <blinc_cursor>
    2fec:	ce c8       	rjmp	.-3684   	; 0x218a <main+0x21a>
		}
}else
//############################################################
if(state==TEMPERATURE_HIGH_LIMIT)
    2fee:	80 91 19 01 	lds	r24, 0x0119	; 0x800119 <state>
    2ff2:	81 32       	cpi	r24, 0x21	; 33
    2ff4:	f9 f4       	brne	.+62     	; 0x3034 <main+0x10c4>
{
	//build_menu_temperature_high_limit();
	//	  clr_blink();
	
	//---------- test KEY ------------------------------------
uint8_t k =	control_key_val(&temperature.string_setp_value_hight[0]);
    2ff6:	8d e5       	ldi	r24, 0x5D	; 93
    2ff8:	91 e0       	ldi	r25, 0x01	; 1
    2ffa:	0e 94 72 0a 	call	0x14e4	; 0x14e4 <control_key_val>
		if (k==1)
    2ffe:	81 30       	cpi	r24, 0x01	; 1
    3000:	21 f4       	brne	.+8      	; 0x300a <main+0x109a>
		{
			state=TEMPERATURE_HIGH;
    3002:	88 e1       	ldi	r24, 0x18	; 24
    3004:	80 93 19 01 	sts	0x0119, r24	; 0x800119 <state>
    3008:	c0 c8       	rjmp	.-3712   	; 0x218a <main+0x21a>
			//clr_blink();
			//blinc_cursor(index_cursor);
		/*	state=TEMPERATURE;
			clr_blink();*/
		}
		if (k==2)
    300a:	82 30       	cpi	r24, 0x02	; 2
    300c:	49 f4       	brne	.+18     	; 0x3020 <main+0x10b0>
		{
			build_menu_temperature_high_limit();
    300e:	0e 94 53 04 	call	0x8a6	; 0x8a6 <build_menu_temperature_high_limit>
			index_cursor=0;
    3012:	10 92 1a 01 	sts	0x011A, r1	; 0x80011a <index_cursor>
			//clr_blink();
			blinc_cursor(index_cursor);
    3016:	80 91 1a 01 	lds	r24, 0x011A	; 0x80011a <index_cursor>
    301a:	0e 94 7d 04 	call	0x8fa	; 0x8fa <blinc_cursor>
    301e:	b5 c8       	rjmp	.-3734   	; 0x218a <main+0x21a>
		}
		if(k==3)
    3020:	83 30       	cpi	r24, 0x03	; 3
    3022:	09 f0       	breq	.+2      	; 0x3026 <main+0x10b6>
    3024:	b2 c8       	rjmp	.-3740   	; 0x218a <main+0x21a>
		{
			build_menu_temperature_high_limit();
    3026:	0e 94 53 04 	call	0x8a6	; 0x8a6 <build_menu_temperature_high_limit>
			blinc_cursor(index_cursor);
    302a:	80 91 1a 01 	lds	r24, 0x011A	; 0x80011a <index_cursor>
    302e:	0e 94 7d 04 	call	0x8fa	; 0x8fa <blinc_cursor>
    3032:	ab c8       	rjmp	.-3754   	; 0x218a <main+0x21a>
		}
}else
//############################################################
if(state==MANUALLY_STARTED)
    3034:	80 91 19 01 	lds	r24, 0x0119	; 0x800119 <state>
    3038:	83 32       	cpi	r24, 0x23	; 35
    303a:	09 f0       	breq	.+2      	; 0x303e <main+0x10ce>
    303c:	47 c0       	rjmp	.+142    	; 0x30cc <main+0x115c>
	lcd_1_strin();	
}
//------------------------------------------------------------------------------------------------------------------
static void build_menu_manually_started(void)
{
	lcd_1_strin();
    303e:	0e 94 19 1a 	call	0x3432	; 0x3432 <lcd_1_strin>
	printf_P(PSTR("Manually Started"));
    3042:	27 e8       	ldi	r18, 0x87	; 135
    3044:	30 e0       	ldi	r19, 0x00	; 0
    3046:	3f 93       	push	r19
    3048:	2f 93       	push	r18
    304a:	0e 94 81 1a 	call	0x3502	; 0x3502 <printf_P>
	lcd_2_strin();
    304e:	0e 94 20 1a 	call	0x3440	; 0x3440 <lcd_2_strin>
	printf_P(PSTR("                "));
    3052:	e6 e7       	ldi	r30, 0x76	; 118
    3054:	f0 e0       	ldi	r31, 0x00	; 0
    3056:	ff 93       	push	r31
    3058:	ef 93       	push	r30
    305a:	0e 94 81 1a 	call	0x3502	; 0x3502 <printf_P>
	lcd_1_strin();	
    305e:	0e 94 19 1a 	call	0x3432	; 0x3432 <lcd_1_strin>
{
	build_menu_manually_started();
	//	  clr_blink();
	
	//---------- test KEY ------------------------------------
	if(key== _right){
    3062:	80 91 18 01 	lds	r24, 0x0118	; 0x800118 <key>
    3066:	0f 90       	pop	r0
    3068:	0f 90       	pop	r0
    306a:	0f 90       	pop	r0
    306c:	0f 90       	pop	r0
    306e:	87 31       	cpi	r24, 0x17	; 23
    3070:	41 f4       	brne	.+16     	; 0x3082 <main+0x1112>
		state=WAIT;
    3072:	81 e0       	ldi	r24, 0x01	; 1
    3074:	80 93 19 01 	sts	0x0119, r24	; 0x800119 <state>
		start_timer_wait();
    3078:	0e 94 5b 03 	call	0x6b6	; 0x6b6 <start_timer_wait>
		clr_key();
    307c:	0e 94 69 03 	call	0x6d2	; 0x6d2 <clr_key>
    3080:	84 c8       	rjmp	.-3832   	; 0x218a <main+0x21a>
	}else
	if(key== _up){
    3082:	80 91 18 01 	lds	r24, 0x0118	; 0x800118 <key>
    3086:	8f 30       	cpi	r24, 0x0F	; 15
    3088:	41 f4       	brne	.+16     	; 0x309a <main+0x112a>
		state=WAIT;
    308a:	81 e0       	ldi	r24, 0x01	; 1
    308c:	80 93 19 01 	sts	0x0119, r24	; 0x800119 <state>
		start_timer_wait();
    3090:	0e 94 5b 03 	call	0x6b6	; 0x6b6 <start_timer_wait>
		clr_key();
    3094:	0e 94 69 03 	call	0x6d2	; 0x6d2 <clr_key>
    3098:	78 c8       	rjmp	.-3856   	; 0x218a <main+0x21a>
	}else
	if(key==_down){
    309a:	80 91 18 01 	lds	r24, 0x0118	; 0x800118 <key>
    309e:	8d 31       	cpi	r24, 0x1D	; 29
    30a0:	41 f4       	brne	.+16     	; 0x30b2 <main+0x1142>
		state=WAIT;
    30a2:	81 e0       	ldi	r24, 0x01	; 1
    30a4:	80 93 19 01 	sts	0x0119, r24	; 0x800119 <state>
		start_timer_wait();
    30a8:	0e 94 5b 03 	call	0x6b6	; 0x6b6 <start_timer_wait>
		clr_key();
    30ac:	0e 94 69 03 	call	0x6d2	; 0x6d2 <clr_key>
    30b0:	6c c8       	rjmp	.-3880   	; 0x218a <main+0x21a>
	}else
	if(key==_left){
    30b2:	80 91 18 01 	lds	r24, 0x0118	; 0x800118 <key>
    30b6:	8b 31       	cpi	r24, 0x1B	; 27
    30b8:	09 f0       	breq	.+2      	; 0x30bc <main+0x114c>
    30ba:	67 c8       	rjmp	.-3890   	; 0x218a <main+0x21a>
		state=WAIT;
    30bc:	81 e0       	ldi	r24, 0x01	; 1
    30be:	80 93 19 01 	sts	0x0119, r24	; 0x800119 <state>
		start_timer_wait();
    30c2:	0e 94 5b 03 	call	0x6b6	; 0x6b6 <start_timer_wait>
		clr_key();
    30c6:	0e 94 69 03 	call	0x6d2	; 0x6d2 <clr_key>
    30ca:	5f c8       	rjmp	.-3906   	; 0x218a <main+0x21a>
	}
	
}else
//#### CALIBRATION ###########################################
if(state==CALIBRATION)
    30cc:	80 91 19 01 	lds	r24, 0x0119	; 0x800119 <state>
    30d0:	84 32       	cpi	r24, 0x24	; 36
    30d2:	09 f0       	breq	.+2      	; 0x30d6 <main+0x1166>
    30d4:	d4 c0       	rjmp	.+424    	; 0x327e <main+0x130e>
	printf_P(PSTR("                "));
	lcd_1_strin();
}
//------------------------------------------------------------------------------------------------------------------
static void build_windou_calobration(void){
	lcd_1_strin();
    30d6:	0e 94 19 1a 	call	0x3432	; 0x3432 <lcd_1_strin>
	printf("Battery: %s   ",battery_voltage_string_current_value);
    30da:	1f 93       	push	r17
    30dc:	0f 93       	push	r16
    30de:	3f 92       	push	r3
    30e0:	2f 92       	push	r2
    30e2:	0e 94 6b 1a 	call	0x34d6	; 0x34d6 <printf>
	lcd_2_strin();
    30e6:	0e 94 20 1a 	call	0x3440	; 0x3440 <lcd_2_strin>
	printf("Coeff. :%0.4u %0.3u",battery_voltage_coefficient, mul);	
    30ea:	80 91 6e 00 	lds	r24, 0x006E	; 0x80006e <mul>
    30ee:	1f 92       	push	r1
    30f0:	8f 93       	push	r24
    30f2:	80 91 3c 01 	lds	r24, 0x013C	; 0x80013c <battery_voltage_coefficient+0x1>
    30f6:	8f 93       	push	r24
    30f8:	80 91 3b 01 	lds	r24, 0x013B	; 0x80013b <battery_voltage_coefficient>
    30fc:	8f 93       	push	r24
    30fe:	88 ef       	ldi	r24, 0xF8	; 248
    3100:	90 e0       	ldi	r25, 0x00	; 0
    3102:	9f 93       	push	r25
    3104:	8f 93       	push	r24
    3106:	0e 94 6b 1a 	call	0x34d6	; 0x34d6 <printf>
	build_windou_calobration();

	
	//lcd_1_strin();
		//---------- test KEY ------------------------------------
		if(key== _right){
    310a:	80 91 18 01 	lds	r24, 0x0118	; 0x800118 <key>
    310e:	2d b7       	in	r18, 0x3d	; 61
    3110:	3e b7       	in	r19, 0x3e	; 62
    3112:	26 5f       	subi	r18, 0xF6	; 246
    3114:	3f 4f       	sbci	r19, 0xFF	; 255
    3116:	0f b6       	in	r0, 0x3f	; 63
    3118:	f8 94       	cli
    311a:	3e bf       	out	0x3e, r19	; 62
    311c:	0f be       	out	0x3f, r0	; 63
    311e:	2d bf       	out	0x3d, r18	; 61
    3120:	87 31       	cpi	r24, 0x17	; 23
    3122:	d9 f4       	brne	.+54     	; 0x315a <main+0x11ea>
			//stored
			store_setp();
    3124:	0e 94 d9 04 	call	0x9b2	; 0x9b2 <store_setp>
			read_eeprom_setp();
    3128:	0e 94 ed 06 	call	0xdda	; 0xdda <read_eeprom_setp>
			clr_blink();
    312c:	0e 94 d2 04 	call	0x9a4	; 0x9a4 <clr_blink>
			build_windou_stored();
    3130:	0e 94 8e 03 	call	0x71c	; 0x71c <build_windou_stored>
			wdt_reset ();
    3134:	a8 95       	wdr
    3136:	3f ef       	ldi	r19, 0xFF	; 255
    3138:	83 ed       	ldi	r24, 0xD3	; 211
    313a:	90 e3       	ldi	r25, 0x30	; 48
    313c:	31 50       	subi	r19, 0x01	; 1
    313e:	80 40       	sbci	r24, 0x00	; 0
    3140:	90 40       	sbci	r25, 0x00	; 0
    3142:	e1 f7       	brne	.-8      	; 0x313c <main+0x11cc>
    3144:	00 c0       	rjmp	.+0      	; 0x3146 <main+0x11d6>
    3146:	00 00       	nop
			_delay_ms(1000);
			wdt_reset ();
    3148:	a8 95       	wdr
			//-------			
			state=WAIT;
    314a:	81 e0       	ldi	r24, 0x01	; 1
    314c:	80 93 19 01 	sts	0x0119, r24	; 0x800119 <state>
			start_timer_wait();
    3150:	0e 94 5b 03 	call	0x6b6	; 0x6b6 <start_timer_wait>
			clr_key();
    3154:	0e 94 69 03 	call	0x6d2	; 0x6d2 <clr_key>
    3158:	18 c8       	rjmp	.-4048   	; 0x218a <main+0x21a>
		}else
		if(key== _up){
    315a:	80 91 18 01 	lds	r24, 0x0118	; 0x800118 <key>
    315e:	8f 30       	cpi	r24, 0x0F	; 15
    3160:	d9 f5       	brne	.+118    	; 0x31d8 <main+0x1268>
			if(mul==1){
    3162:	80 91 6e 00 	lds	r24, 0x006E	; 0x80006e <mul>
    3166:	81 30       	cpi	r24, 0x01	; 1
    3168:	51 f4       	brne	.+20     	; 0x317e <main+0x120e>
				battery_voltage_coefficient++;
    316a:	80 91 3b 01 	lds	r24, 0x013B	; 0x80013b <battery_voltage_coefficient>
    316e:	90 91 3c 01 	lds	r25, 0x013C	; 0x80013c <battery_voltage_coefficient+0x1>
    3172:	01 96       	adiw	r24, 0x01	; 1
    3174:	90 93 3c 01 	sts	0x013C, r25	; 0x80013c <battery_voltage_coefficient+0x1>
    3178:	80 93 3b 01 	sts	0x013B, r24	; 0x80013b <battery_voltage_coefficient>
    317c:	1c c0       	rjmp	.+56     	; 0x31b6 <main+0x1246>
				}else if(mul==10){
    317e:	8a 30       	cpi	r24, 0x0A	; 10
    3180:	51 f4       	brne	.+20     	; 0x3196 <main+0x1226>
					battery_voltage_coefficient+=10;
    3182:	80 91 3b 01 	lds	r24, 0x013B	; 0x80013b <battery_voltage_coefficient>
    3186:	90 91 3c 01 	lds	r25, 0x013C	; 0x80013c <battery_voltage_coefficient+0x1>
    318a:	0a 96       	adiw	r24, 0x0a	; 10
    318c:	90 93 3c 01 	sts	0x013C, r25	; 0x80013c <battery_voltage_coefficient+0x1>
    3190:	80 93 3b 01 	sts	0x013B, r24	; 0x80013b <battery_voltage_coefficient>
    3194:	10 c0       	rjmp	.+32     	; 0x31b6 <main+0x1246>
				}else if(mul==100){
    3196:	84 36       	cpi	r24, 0x64	; 100
    3198:	59 f4       	brne	.+22     	; 0x31b0 <main+0x1240>
					battery_voltage_coefficient+=100;
    319a:	80 91 3b 01 	lds	r24, 0x013B	; 0x80013b <battery_voltage_coefficient>
    319e:	90 91 3c 01 	lds	r25, 0x013C	; 0x80013c <battery_voltage_coefficient+0x1>
    31a2:	8c 59       	subi	r24, 0x9C	; 156
    31a4:	9f 4f       	sbci	r25, 0xFF	; 255
    31a6:	90 93 3c 01 	sts	0x013C, r25	; 0x80013c <battery_voltage_coefficient+0x1>
    31aa:	80 93 3b 01 	sts	0x013B, r24	; 0x80013b <battery_voltage_coefficient>
    31ae:	03 c0       	rjmp	.+6      	; 0x31b6 <main+0x1246>
				}else{
					mul=1;
    31b0:	81 e0       	ldi	r24, 0x01	; 1
    31b2:	80 93 6e 00 	sts	0x006E, r24	; 0x80006e <mul>
				}
			if(battery_voltage_coefficient>2000) battery_voltage_coefficient=2000;
    31b6:	80 91 3b 01 	lds	r24, 0x013B	; 0x80013b <battery_voltage_coefficient>
    31ba:	90 91 3c 01 	lds	r25, 0x013C	; 0x80013c <battery_voltage_coefficient+0x1>
    31be:	81 3d       	cpi	r24, 0xD1	; 209
    31c0:	97 40       	sbci	r25, 0x07	; 7
    31c2:	30 f0       	brcs	.+12     	; 0x31d0 <main+0x1260>
    31c4:	20 ed       	ldi	r18, 0xD0	; 208
    31c6:	37 e0       	ldi	r19, 0x07	; 7
    31c8:	30 93 3c 01 	sts	0x013C, r19	; 0x80013c <battery_voltage_coefficient+0x1>
    31cc:	20 93 3b 01 	sts	0x013B, r18	; 0x80013b <battery_voltage_coefficient>
			clr_key();
    31d0:	0e 94 69 03 	call	0x6d2	; 0x6d2 <clr_key>
    31d4:	0c 94 c5 10 	jmp	0x218a	; 0x218a <main+0x21a>
		}else
		if(key==_down){
    31d8:	80 91 18 01 	lds	r24, 0x0118	; 0x800118 <key>
    31dc:	8d 31       	cpi	r24, 0x1D	; 29
    31de:	71 f5       	brne	.+92     	; 0x323c <main+0x12cc>
			if(battery_voltage_coefficient!=0){
    31e0:	80 91 3b 01 	lds	r24, 0x013B	; 0x80013b <battery_voltage_coefficient>
    31e4:	90 91 3c 01 	lds	r25, 0x013C	; 0x80013c <battery_voltage_coefficient+0x1>
    31e8:	00 97       	sbiw	r24, 0x00	; 0
    31ea:	21 f1       	breq	.+72     	; 0x3234 <main+0x12c4>
				if(mul==1){
    31ec:	20 91 6e 00 	lds	r18, 0x006E	; 0x80006e <mul>
    31f0:	21 30       	cpi	r18, 0x01	; 1
    31f2:	31 f4       	brne	.+12     	; 0x3200 <main+0x1290>
					battery_voltage_coefficient--;
    31f4:	01 97       	sbiw	r24, 0x01	; 1
    31f6:	90 93 3c 01 	sts	0x013C, r25	; 0x80013c <battery_voltage_coefficient+0x1>
    31fa:	80 93 3b 01 	sts	0x013B, r24	; 0x80013b <battery_voltage_coefficient>
    31fe:	1a c0       	rjmp	.+52     	; 0x3234 <main+0x12c4>
				}else if(mul==10){
    3200:	2a 30       	cpi	r18, 0x0A	; 10
    3202:	49 f4       	brne	.+18     	; 0x3216 <main+0x12a6>
						if(battery_voltage_coefficient>=10){
    3204:	8a 30       	cpi	r24, 0x0A	; 10
    3206:	91 05       	cpc	r25, r1
    3208:	a8 f0       	brcs	.+42     	; 0x3234 <main+0x12c4>
							battery_voltage_coefficient-=10;
    320a:	0a 97       	sbiw	r24, 0x0a	; 10
    320c:	90 93 3c 01 	sts	0x013C, r25	; 0x80013c <battery_voltage_coefficient+0x1>
    3210:	80 93 3b 01 	sts	0x013B, r24	; 0x80013b <battery_voltage_coefficient>
    3214:	0f c0       	rjmp	.+30     	; 0x3234 <main+0x12c4>
						}
					}else if(mul==100){
    3216:	24 36       	cpi	r18, 0x64	; 100
    3218:	51 f4       	brne	.+20     	; 0x322e <main+0x12be>
						if(battery_voltage_coefficient>=100){
    321a:	84 36       	cpi	r24, 0x64	; 100
    321c:	91 05       	cpc	r25, r1
    321e:	50 f0       	brcs	.+20     	; 0x3234 <main+0x12c4>
							battery_voltage_coefficient=battery_voltage_coefficient-100;
    3220:	84 56       	subi	r24, 0x64	; 100
    3222:	91 09       	sbc	r25, r1
    3224:	90 93 3c 01 	sts	0x013C, r25	; 0x80013c <battery_voltage_coefficient+0x1>
    3228:	80 93 3b 01 	sts	0x013B, r24	; 0x80013b <battery_voltage_coefficient>
    322c:	03 c0       	rjmp	.+6      	; 0x3234 <main+0x12c4>
						}
					}else{
						mul=1;
    322e:	81 e0       	ldi	r24, 0x01	; 1
    3230:	80 93 6e 00 	sts	0x006E, r24	; 0x80006e <mul>
					}
				
			}
			clr_key();
    3234:	0e 94 69 03 	call	0x6d2	; 0x6d2 <clr_key>
    3238:	0c 94 c5 10 	jmp	0x218a	; 0x218a <main+0x21a>
		}else
		if(key==_left){
    323c:	80 91 18 01 	lds	r24, 0x0118	; 0x800118 <key>
    3240:	8b 31       	cpi	r24, 0x1B	; 27
    3242:	11 f0       	breq	.+4      	; 0x3248 <main+0x12d8>
    3244:	0c 94 c5 10 	jmp	0x218a	; 0x218a <main+0x21a>
		if(mul==1){
    3248:	80 91 6e 00 	lds	r24, 0x006E	; 0x80006e <mul>
    324c:	81 30       	cpi	r24, 0x01	; 1
    324e:	21 f4       	brne	.+8      	; 0x3258 <main+0x12e8>
			mul=10;
    3250:	8a e0       	ldi	r24, 0x0A	; 10
    3252:	80 93 6e 00 	sts	0x006E, r24	; 0x80006e <mul>
    3256:	0f c0       	rjmp	.+30     	; 0x3276 <main+0x1306>
		}else if(mul==10){
    3258:	8a 30       	cpi	r24, 0x0A	; 10
    325a:	21 f4       	brne	.+8      	; 0x3264 <main+0x12f4>
			mul=100;
    325c:	84 e6       	ldi	r24, 0x64	; 100
    325e:	80 93 6e 00 	sts	0x006E, r24	; 0x80006e <mul>
    3262:	09 c0       	rjmp	.+18     	; 0x3276 <main+0x1306>
		}else if(mul==100){
    3264:	84 36       	cpi	r24, 0x64	; 100
    3266:	21 f4       	brne	.+8      	; 0x3270 <main+0x1300>
			mul=1;
    3268:	81 e0       	ldi	r24, 0x01	; 1
    326a:	80 93 6e 00 	sts	0x006E, r24	; 0x80006e <mul>
    326e:	03 c0       	rjmp	.+6      	; 0x3276 <main+0x1306>
		}else{
			mul=1;
    3270:	81 e0       	ldi	r24, 0x01	; 1
    3272:	80 93 6e 00 	sts	0x006E, r24	; 0x80006e <mul>
		}
			clr_key();
    3276:	0e 94 69 03 	call	0x6d2	; 0x6d2 <clr_key>
    327a:	0c 94 c5 10 	jmp	0x218a	; 0x218a <main+0x21a>
	
}
//##########################################################
else
{
	state=WAIT;
    327e:	81 e0       	ldi	r24, 0x01	; 1
    3280:	80 93 19 01 	sts	0x0119, r24	; 0x800119 <state>
	start_timer_wait();
    3284:	0e 94 5b 03 	call	0x6b6	; 0x6b6 <start_timer_wait>
    3288:	0c 94 c5 10 	jmp	0x218a	; 0x218a <main+0x21a>
	state=CALIBRATION;
	
} 
else
{
	state=WAIT;
    328c:	81 e0       	ldi	r24, 0x01	; 1
    328e:	80 93 19 01 	sts	0x0119, r24	; 0x800119 <state>
	start_timer_wait();
    3292:	0e 94 5b 03 	call	0x6b6	; 0x6b6 <start_timer_wait>
    3296:	0c 94 92 10 	jmp	0x2124	; 0x2124 <main+0x1b4>
			if (buf_key[0]==0x1f) 
			{
			flag=0;
			}
			//
			if(flag==0) 
    329a:	90 91 0f 01 	lds	r25, 0x010F	; 0x80010f <flag>
    329e:	99 23       	and	r25, r25
    32a0:	11 f4       	brne	.+4      	; 0x32a6 <main+0x1336>
    32a2:	0c 94 28 11 	jmp	0x2250	; 0x2250 <main+0x2e0>
					return 0x1f;
					}
			}
			else 
			{
			return 0x1f;
    32a6:	8f e1       	ldi	r24, 0x1F	; 31
    32a8:	0c 94 39 11 	jmp	0x2272	; 0x2272 <main+0x302>

000032ac <hd44780_outnibble>:
static void
hd44780_outnibble(uint8_t n, uint8_t rs)
{
  uint8_t x;

  HD44780_PORTOUT &= ~_BV(HD44780_RW);
    32ac:	c4 98       	cbi	0x18, 4	; 24
  if (rs)
    32ae:	66 23       	and	r22, r22
    32b0:	11 f0       	breq	.+4      	; 0x32b6 <hd44780_outnibble+0xa>
    HD44780_PORTOUT |= _BV(HD44780_RS);
    32b2:	c6 9a       	sbi	0x18, 6	; 24
    32b4:	01 c0       	rjmp	.+2      	; 0x32b8 <hd44780_outnibble+0xc>
  else
    HD44780_PORTOUT &= ~_BV(HD44780_RS);
    32b6:	c6 98       	cbi	0x18, 6	; 24
  x = (HD44780_PORTOUT & ~HD44780_DATABITS) | ((n << HD44780_D4) & HD44780_DATABITS);
    32b8:	98 b3       	in	r25, 0x18	; 24
    32ba:	90 7f       	andi	r25, 0xF0	; 240
    32bc:	8f 70       	andi	r24, 0x0F	; 15
    32be:	89 2b       	or	r24, r25
  HD44780_PORTOUT = x;
    32c0:	88 bb       	out	0x18, r24	; 24
static inline uint8_t
hd44780_pulse_e(bool readback)
{
  uint8_t x;

  HD44780_PORTOUT |= _BV(HD44780_E);
    32c2:	c5 9a       	sbi	0x18, 5	; 24
	#else
		//round up by default
		__ticks_dc = (uint32_t)(ceil(fabs(__tmp)));
	#endif

	__builtin_avr_delay_cycles(__ticks_dc);
    32c4:	82 e0       	ldi	r24, 0x02	; 2
    32c6:	8a 95       	dec	r24
    32c8:	f1 f7       	brne	.-4      	; 0x32c6 <hd44780_outnibble+0x1a>
    32ca:	00 c0       	rjmp	.+0      	; 0x32cc <hd44780_outnibble+0x20>
#endif
  if (readback)
    x = HD44780_PORTIN & HD44780_DATABITS;
  else
    x = 0;
  HD44780_PORTOUT &= ~_BV(HD44780_E);
    32cc:	c5 98       	cbi	0x18, 5	; 24
    32ce:	08 95       	ret

000032d0 <hd44780_innibble>:
static uint8_t
hd44780_innibble(uint8_t rs)
{
  uint8_t x;

  HD44780_PORTOUT |= _BV(HD44780_RW);
    32d0:	c4 9a       	sbi	0x18, 4	; 24
  HD44780_DDR &= ~HD44780_DATABITS;
    32d2:	97 b3       	in	r25, 0x17	; 23
    32d4:	90 7f       	andi	r25, 0xF0	; 240
    32d6:	97 bb       	out	0x17, r25	; 23
  if (rs)
    32d8:	88 23       	and	r24, r24
    32da:	11 f0       	breq	.+4      	; 0x32e0 <hd44780_innibble+0x10>
    HD44780_PORTOUT |= _BV(HD44780_RS);
    32dc:	c6 9a       	sbi	0x18, 6	; 24
    32de:	01 c0       	rjmp	.+2      	; 0x32e2 <hd44780_innibble+0x12>
  else
    HD44780_PORTOUT &= ~_BV(HD44780_RS);
    32e0:	c6 98       	cbi	0x18, 6	; 24
static inline uint8_t
hd44780_pulse_e(bool readback)
{
  uint8_t x;

  HD44780_PORTOUT |= _BV(HD44780_E);
    32e2:	c5 9a       	sbi	0x18, 5	; 24
    32e4:	82 e0       	ldi	r24, 0x02	; 2
    32e6:	8a 95       	dec	r24
    32e8:	f1 f7       	brne	.-4      	; 0x32e6 <hd44780_innibble+0x16>
    32ea:	00 c0       	rjmp	.+0      	; 0x32ec <hd44780_innibble+0x1c>
  __asm__ volatile("nop");
#    endif /* F_CPU > 2000000UL */
#  endif /* F_CPU > 1000000UL */
#endif
  if (readback)
    x = HD44780_PORTIN & HD44780_DATABITS;
    32ec:	86 b3       	in	r24, 0x16	; 22
  else
    x = 0;
  HD44780_PORTOUT &= ~_BV(HD44780_E);
    32ee:	c5 98       	cbi	0x18, 5	; 24
  if (rs)
    HD44780_PORTOUT |= _BV(HD44780_RS);
  else
    HD44780_PORTOUT &= ~_BV(HD44780_RS);
  x = hd44780_pulse_e(true);
  HD44780_DDR |= HD44780_DATABITS;
    32f0:	97 b3       	in	r25, 0x17	; 23
    32f2:	9f 60       	ori	r25, 0x0F	; 15
    32f4:	97 bb       	out	0x17, r25	; 23
  HD44780_PORTOUT &= ~_BV(HD44780_RW);
    32f6:	c4 98       	cbi	0x18, 4	; 24

  return (x & HD44780_DATABITS) >> HD44780_D4;
}
    32f8:	8f 70       	andi	r24, 0x0F	; 15
    32fa:	08 95       	ret

000032fc <hd44780_outbyte>:
 * Send one byte to the LCD controller.  As we are in 4-bit mode, we
 * have to send two nibbles.
 */
void
hd44780_outbyte(uint8_t b, uint8_t rs)
{
    32fc:	cf 93       	push	r28
    32fe:	df 93       	push	r29
    3300:	c8 2f       	mov	r28, r24
    3302:	d6 2f       	mov	r29, r22
  hd44780_outnibble(b >> 4, rs);
    3304:	82 95       	swap	r24
    3306:	8f 70       	andi	r24, 0x0F	; 15
    3308:	0e 94 56 19 	call	0x32ac	; 0x32ac <hd44780_outnibble>
  hd44780_outnibble(b & 0xf, rs);
    330c:	6d 2f       	mov	r22, r29
    330e:	8c 2f       	mov	r24, r28
    3310:	8f 70       	andi	r24, 0x0F	; 15
    3312:	0e 94 56 19 	call	0x32ac	; 0x32ac <hd44780_outnibble>
}
    3316:	df 91       	pop	r29
    3318:	cf 91       	pop	r28
    331a:	08 95       	ret

0000331c <hd44780_inbyte>:
/*
 * Read one byte (i.e. two nibbles) from the LCD controller.
 */
uint8_t
hd44780_inbyte(uint8_t rs)
{
    331c:	cf 93       	push	r28
    331e:	df 93       	push	r29
    3320:	c8 2f       	mov	r28, r24
  uint8_t x;

  x = hd44780_innibble(rs) << 4;
    3322:	0e 94 68 19 	call	0x32d0	; 0x32d0 <hd44780_innibble>
    3326:	d8 2f       	mov	r29, r24
    3328:	d2 95       	swap	r29
    332a:	d0 7f       	andi	r29, 0xF0	; 240
  x |= hd44780_innibble(rs);
    332c:	8c 2f       	mov	r24, r28
    332e:	0e 94 68 19 	call	0x32d0	; 0x32d0 <hd44780_innibble>

  return x;
}
    3332:	8d 2b       	or	r24, r29
    3334:	df 91       	pop	r29
    3336:	cf 91       	pop	r28
    3338:	08 95       	ret

0000333a <hd44780_wait_ready>:
 */
void
hd44780_wait_ready(void)
{
//!!return;
  while (hd44780_incmd() & HD44780_BUSYFLAG) ;
    333a:	80 e0       	ldi	r24, 0x00	; 0
    333c:	0e 94 8e 19 	call	0x331c	; 0x331c <hd44780_inbyte>
    3340:	88 23       	and	r24, r24
    3342:	dc f3       	brlt	.-10     	; 0x333a <hd44780_wait_ready>
}
    3344:	08 95       	ret

00003346 <hd44780_init>:
 */
void
hd44780_init(void)
{

  HD44780_DDR = _BV(HD44780_RS) | _BV(HD44780_RW) | _BV(HD44780_E)
    3346:	8f e7       	ldi	r24, 0x7F	; 127
    3348:	87 bb       	out	0x17, r24	; 23
	#else
		//round up by default
		__ticks_dc = (uint32_t)(ceil(fabs(__tmp)));
	#endif

	__builtin_avr_delay_cycles(__ticks_dc);
    334a:	8f e5       	ldi	r24, 0x5F	; 95
    334c:	9a ee       	ldi	r25, 0xEA	; 234
    334e:	01 97       	sbiw	r24, 0x01	; 1
    3350:	f1 f7       	brne	.-4      	; 0x334e <hd44780_init+0x8>
    3352:	00 c0       	rjmp	.+0      	; 0x3354 <hd44780_init+0xe>
    3354:	00 00       	nop
    | HD44780_DATABITS;

  _delay_ms(15);		/* 40 ms needed for Vcc = 2.7 V */
  hd44780_outnibble(HD44780_FNSET(1, 0, 0) >> 4, 0);
    3356:	60 e0       	ldi	r22, 0x00	; 0
    3358:	83 e0       	ldi	r24, 0x03	; 3
    335a:	0e 94 56 19 	call	0x32ac	; 0x32ac <hd44780_outnibble>
    335e:	8f e0       	ldi	r24, 0x0F	; 15
    3360:	90 e4       	ldi	r25, 0x40	; 64
    3362:	01 97       	sbiw	r24, 0x01	; 1
    3364:	f1 f7       	brne	.-4      	; 0x3362 <hd44780_init+0x1c>
    3366:	00 c0       	rjmp	.+0      	; 0x3368 <hd44780_init+0x22>
    3368:	00 00       	nop
  _delay_ms(4.1);
  hd44780_outnibble(HD44780_FNSET(1, 0, 0) >> 4, 0);
    336a:	60 e0       	ldi	r22, 0x00	; 0
    336c:	83 e0       	ldi	r24, 0x03	; 3
    336e:	0e 94 56 19 	call	0x32ac	; 0x32ac <hd44780_outnibble>
    3372:	8f e8       	ldi	r24, 0x8F	; 143
    3374:	91 e0       	ldi	r25, 0x01	; 1
    3376:	01 97       	sbiw	r24, 0x01	; 1
    3378:	f1 f7       	brne	.-4      	; 0x3376 <hd44780_init+0x30>
    337a:	00 c0       	rjmp	.+0      	; 0x337c <hd44780_init+0x36>
    337c:	00 00       	nop
  _delay_ms(0.1);
  hd44780_outnibble(HD44780_FNSET(1, 0, 0) >> 4, 0);
    337e:	60 e0       	ldi	r22, 0x00	; 0
    3380:	83 e0       	ldi	r24, 0x03	; 3
    3382:	0e 94 56 19 	call	0x32ac	; 0x32ac <hd44780_outnibble>

  hd44780_outnibble(HD44780_FNSET(0, 1, 0) >> 4, 0);
    3386:	60 e0       	ldi	r22, 0x00	; 0
    3388:	82 e0       	ldi	r24, 0x02	; 2
    338a:	0e 94 56 19 	call	0x32ac	; 0x32ac <hd44780_outnibble>
  hd44780_wait_ready();
    338e:	0e 94 9d 19 	call	0x333a	; 0x333a <hd44780_wait_ready>
  hd44780_outcmd(HD44780_FNSET(0, 1, 0));
    3392:	60 e0       	ldi	r22, 0x00	; 0
    3394:	88 e2       	ldi	r24, 0x28	; 40
    3396:	0e 94 7e 19 	call	0x32fc	; 0x32fc <hd44780_outbyte>
  hd44780_wait_ready();
    339a:	0e 94 9d 19 	call	0x333a	; 0x333a <hd44780_wait_ready>
  hd44780_outcmd(HD44780_DISPCTL(0, 0, 0));
    339e:	60 e0       	ldi	r22, 0x00	; 0
    33a0:	88 e0       	ldi	r24, 0x08	; 8
    33a2:	0e 94 7e 19 	call	0x32fc	; 0x32fc <hd44780_outbyte>
  hd44780_wait_ready();
    33a6:	0e 94 9d 19 	call	0x333a	; 0x333a <hd44780_wait_ready>
    33aa:	08 95       	ret

000033ac <lcd_init>:
 */
void
lcd_init(void)
{

  hd44780_init();
    33ac:	0e 94 a3 19 	call	0x3346	; 0x3346 <hd44780_init>

  /*
   * Clear the display.
   */
  hd44780_outcmd(HD44780_CLR);
    33b0:	60 e0       	ldi	r22, 0x00	; 0
    33b2:	81 e0       	ldi	r24, 0x01	; 1
    33b4:	0e 94 7e 19 	call	0x32fc	; 0x32fc <hd44780_outbyte>
  hd44780_wait_ready();
    33b8:	0e 94 9d 19 	call	0x333a	; 0x333a <hd44780_wait_ready>

  /*
   * Entry mode: auto-increment address counter, no display shift in
   * effect.
   */
  hd44780_outcmd(HD44780_ENTMODE(1, 0));
    33bc:	60 e0       	ldi	r22, 0x00	; 0
    33be:	86 e0       	ldi	r24, 0x06	; 6
    33c0:	0e 94 7e 19 	call	0x32fc	; 0x32fc <hd44780_outbyte>
  hd44780_wait_ready();
    33c4:	0e 94 9d 19 	call	0x333a	; 0x333a <hd44780_wait_ready>

  /*
   * Enable display, activate non-blinking cursor.
   */
  hd44780_outcmd(HD44780_DISPCTL(1, 1, 0));
    33c8:	60 e0       	ldi	r22, 0x00	; 0
    33ca:	8e e0       	ldi	r24, 0x0E	; 14
    33cc:	0e 94 7e 19 	call	0x32fc	; 0x32fc <hd44780_outbyte>
  hd44780_wait_ready();
    33d0:	0e 94 9d 19 	call	0x333a	; 0x333a <hd44780_wait_ready>
    33d4:	08 95       	ret

000033d6 <lcd_putchar>:
 * Send character c to the LCD display.  After a '\n' has been seen,
 * the next character will first clear the display.
 */
int
lcd_putchar(char c, FILE *unused)
{
    33d6:	cf 93       	push	r28
  static bool nl_seen;

//!!
//  PORTB=c;

  if (nl_seen && c != '\n')
    33d8:	90 91 1f 01 	lds	r25, 0x011F	; 0x80011f <nl_seen.1957>
    33dc:	99 23       	and	r25, r25
    33de:	29 f0       	breq	.+10     	; 0x33ea <lcd_putchar+0x14>
    33e0:	8a 30       	cpi	r24, 0x0A	; 10
    33e2:	29 f0       	breq	.+10     	; 0x33ee <lcd_putchar+0x18>
 //     hd44780_wait_ready();
 //     hd44780_outcmd(HD44780_HOME);
 //     hd44780_wait_ready();
 //     hd44780_outcmd(HD44780_DDADDR(0));

      nl_seen = false;
    33e4:	10 92 1f 01 	sts	0x011F, r1	; 0x80011f <nl_seen.1957>
    33e8:	06 c0       	rjmp	.+12     	; 0x33f6 <lcd_putchar+0x20>
    }
  if (c == '\n')
    33ea:	8a 30       	cpi	r24, 0x0A	; 10
    33ec:	21 f4       	brne	.+8      	; 0x33f6 <lcd_putchar+0x20>
    {
      nl_seen = true;
    33ee:	81 e0       	ldi	r24, 0x01	; 1
    33f0:	80 93 1f 01 	sts	0x011F, r24	; 0x80011f <nl_seen.1957>
    33f4:	07 c0       	rjmp	.+14     	; 0x3404 <lcd_putchar+0x2e>
    33f6:	c8 2f       	mov	r28, r24
    }
  else
    {
      hd44780_wait_ready();
    33f8:	0e 94 9d 19 	call	0x333a	; 0x333a <hd44780_wait_ready>
      hd44780_outdata(c);
    33fc:	61 e0       	ldi	r22, 0x01	; 1
    33fe:	8c 2f       	mov	r24, r28
    3400:	0e 94 7e 19 	call	0x32fc	; 0x32fc <hd44780_outbyte>
    }

  return 0;
}
    3404:	80 e0       	ldi	r24, 0x00	; 0
    3406:	90 e0       	ldi	r25, 0x00	; 0
    3408:	cf 91       	pop	r28
    340a:	08 95       	ret

0000340c <lcd_reset>:
void lcd_reset(void)
{
       /*
       * First character after newline, clear display and home cursor.
       */
      hd44780_wait_ready();
    340c:	0e 94 9d 19 	call	0x333a	; 0x333a <hd44780_wait_ready>
      hd44780_outcmd(HD44780_CLR);
    3410:	60 e0       	ldi	r22, 0x00	; 0
    3412:	81 e0       	ldi	r24, 0x01	; 1
    3414:	0e 94 7e 19 	call	0x32fc	; 0x32fc <hd44780_outbyte>
      hd44780_wait_ready();
    3418:	0e 94 9d 19 	call	0x333a	; 0x333a <hd44780_wait_ready>
      hd44780_outcmd(HD44780_HOME);
    341c:	60 e0       	ldi	r22, 0x00	; 0
    341e:	82 e0       	ldi	r24, 0x02	; 2
    3420:	0e 94 7e 19 	call	0x32fc	; 0x32fc <hd44780_outbyte>
      hd44780_wait_ready();
    3424:	0e 94 9d 19 	call	0x333a	; 0x333a <hd44780_wait_ready>
      hd44780_outcmd(HD44780_DDADDR(0));
    3428:	60 e0       	ldi	r22, 0x00	; 0
    342a:	80 e8       	ldi	r24, 0x80	; 128
    342c:	0e 94 7e 19 	call	0x32fc	; 0x32fc <hd44780_outbyte>
    3430:	08 95       	ret

00003432 <lcd_1_strin>:
}
//===============================================================
void lcd_1_strin(void)
{
     hd44780_wait_ready();
    3432:	0e 94 9d 19 	call	0x333a	; 0x333a <hd44780_wait_ready>
      hd44780_outcmd(HD44780_DDADDR(0));
    3436:	60 e0       	ldi	r22, 0x00	; 0
    3438:	80 e8       	ldi	r24, 0x80	; 128
    343a:	0e 94 7e 19 	call	0x32fc	; 0x32fc <hd44780_outbyte>
    343e:	08 95       	ret

00003440 <lcd_2_strin>:
}
//===============================================================
void lcd_2_strin(void)
{
     hd44780_wait_ready();
    3440:	0e 94 9d 19 	call	0x333a	; 0x333a <hd44780_wait_ready>
      hd44780_outcmd(HD44780_DDADDR(0x40));
    3444:	60 e0       	ldi	r22, 0x00	; 0
    3446:	80 ec       	ldi	r24, 0xC0	; 192
    3448:	0e 94 7e 19 	call	0x32fc	; 0x32fc <hd44780_outbyte>
    344c:	08 95       	ret

0000344e <__udivmodsi4>:
    344e:	a1 e2       	ldi	r26, 0x21	; 33
    3450:	1a 2e       	mov	r1, r26
    3452:	aa 1b       	sub	r26, r26
    3454:	bb 1b       	sub	r27, r27
    3456:	fd 01       	movw	r30, r26
    3458:	0d c0       	rjmp	.+26     	; 0x3474 <__udivmodsi4_ep>

0000345a <__udivmodsi4_loop>:
    345a:	aa 1f       	adc	r26, r26
    345c:	bb 1f       	adc	r27, r27
    345e:	ee 1f       	adc	r30, r30
    3460:	ff 1f       	adc	r31, r31
    3462:	a2 17       	cp	r26, r18
    3464:	b3 07       	cpc	r27, r19
    3466:	e4 07       	cpc	r30, r20
    3468:	f5 07       	cpc	r31, r21
    346a:	20 f0       	brcs	.+8      	; 0x3474 <__udivmodsi4_ep>
    346c:	a2 1b       	sub	r26, r18
    346e:	b3 0b       	sbc	r27, r19
    3470:	e4 0b       	sbc	r30, r20
    3472:	f5 0b       	sbc	r31, r21

00003474 <__udivmodsi4_ep>:
    3474:	66 1f       	adc	r22, r22
    3476:	77 1f       	adc	r23, r23
    3478:	88 1f       	adc	r24, r24
    347a:	99 1f       	adc	r25, r25
    347c:	1a 94       	dec	r1
    347e:	69 f7       	brne	.-38     	; 0x345a <__udivmodsi4_loop>
    3480:	60 95       	com	r22
    3482:	70 95       	com	r23
    3484:	80 95       	com	r24
    3486:	90 95       	com	r25
    3488:	9b 01       	movw	r18, r22
    348a:	ac 01       	movw	r20, r24
    348c:	bd 01       	movw	r22, r26
    348e:	cf 01       	movw	r24, r30
    3490:	08 95       	ret

00003492 <__umulhisi3>:
    3492:	a2 9f       	mul	r26, r18
    3494:	b0 01       	movw	r22, r0
    3496:	b3 9f       	mul	r27, r19
    3498:	c0 01       	movw	r24, r0
    349a:	a3 9f       	mul	r26, r19
    349c:	70 0d       	add	r23, r0
    349e:	81 1d       	adc	r24, r1
    34a0:	11 24       	eor	r1, r1
    34a2:	91 1d       	adc	r25, r1
    34a4:	b2 9f       	mul	r27, r18
    34a6:	70 0d       	add	r23, r0
    34a8:	81 1d       	adc	r24, r1
    34aa:	11 24       	eor	r1, r1
    34ac:	91 1d       	adc	r25, r1
    34ae:	08 95       	ret

000034b0 <__muluhisi3>:
    34b0:	0e 94 49 1a 	call	0x3492	; 0x3492 <__umulhisi3>
    34b4:	a5 9f       	mul	r26, r21
    34b6:	90 0d       	add	r25, r0
    34b8:	b4 9f       	mul	r27, r20
    34ba:	90 0d       	add	r25, r0
    34bc:	a4 9f       	mul	r26, r20
    34be:	80 0d       	add	r24, r0
    34c0:	91 1d       	adc	r25, r1
    34c2:	11 24       	eor	r1, r1
    34c4:	08 95       	ret

000034c6 <__mulshisi3>:
    34c6:	b7 ff       	sbrs	r27, 7
    34c8:	0c 94 58 1a 	jmp	0x34b0	; 0x34b0 <__muluhisi3>

000034cc <__mulohisi3>:
    34cc:	0e 94 58 1a 	call	0x34b0	; 0x34b0 <__muluhisi3>
    34d0:	82 1b       	sub	r24, r18
    34d2:	93 0b       	sbc	r25, r19
    34d4:	08 95       	ret

000034d6 <printf>:
    34d6:	a0 e0       	ldi	r26, 0x00	; 0
    34d8:	b0 e0       	ldi	r27, 0x00	; 0
    34da:	e1 e7       	ldi	r30, 0x71	; 113
    34dc:	fa e1       	ldi	r31, 0x1A	; 26
    34de:	0c 94 86 1d 	jmp	0x3b0c	; 0x3b0c <__prologue_saves__+0x20>
    34e2:	ae 01       	movw	r20, r28
    34e4:	4b 5f       	subi	r20, 0xFB	; 251
    34e6:	5f 4f       	sbci	r21, 0xFF	; 255
    34e8:	fa 01       	movw	r30, r20
    34ea:	61 91       	ld	r22, Z+
    34ec:	71 91       	ld	r23, Z+
    34ee:	af 01       	movw	r20, r30
    34f0:	80 91 c8 01 	lds	r24, 0x01C8	; 0x8001c8 <__iob+0x2>
    34f4:	90 91 c9 01 	lds	r25, 0x01C9	; 0x8001c9 <__iob+0x3>
    34f8:	0e 94 a7 1a 	call	0x354e	; 0x354e <vfprintf>
    34fc:	e2 e0       	ldi	r30, 0x02	; 2
    34fe:	0c 94 a2 1d 	jmp	0x3b44	; 0x3b44 <__epilogue_restores__+0x20>

00003502 <printf_P>:
    3502:	a0 e0       	ldi	r26, 0x00	; 0
    3504:	b0 e0       	ldi	r27, 0x00	; 0
    3506:	e7 e8       	ldi	r30, 0x87	; 135
    3508:	fa e1       	ldi	r31, 0x1A	; 26
    350a:	0c 94 84 1d 	jmp	0x3b08	; 0x3b08 <__prologue_saves__+0x1c>
    350e:	ae 01       	movw	r20, r28
    3510:	49 5f       	subi	r20, 0xF9	; 249
    3512:	5f 4f       	sbci	r21, 0xFF	; 255
    3514:	da 01       	movw	r26, r20
    3516:	6d 91       	ld	r22, X+
    3518:	7d 91       	ld	r23, X+
    351a:	ad 01       	movw	r20, r26
    351c:	06 ec       	ldi	r16, 0xC6	; 198
    351e:	11 e0       	ldi	r17, 0x01	; 1
    3520:	f8 01       	movw	r30, r16
    3522:	82 81       	ldd	r24, Z+2	; 0x02
    3524:	93 81       	ldd	r25, Z+3	; 0x03
    3526:	dc 01       	movw	r26, r24
    3528:	13 96       	adiw	r26, 0x03	; 3
    352a:	2c 91       	ld	r18, X
    352c:	13 97       	sbiw	r26, 0x03	; 3
    352e:	28 60       	ori	r18, 0x08	; 8
    3530:	13 96       	adiw	r26, 0x03	; 3
    3532:	2c 93       	st	X, r18
    3534:	0e 94 a7 1a 	call	0x354e	; 0x354e <vfprintf>
    3538:	d8 01       	movw	r26, r16
    353a:	12 96       	adiw	r26, 0x02	; 2
    353c:	ed 91       	ld	r30, X+
    353e:	fc 91       	ld	r31, X
    3540:	13 97       	sbiw	r26, 0x03	; 3
    3542:	23 81       	ldd	r18, Z+3	; 0x03
    3544:	27 7f       	andi	r18, 0xF7	; 247
    3546:	23 83       	std	Z+3, r18	; 0x03
    3548:	e4 e0       	ldi	r30, 0x04	; 4
    354a:	0c 94 a0 1d 	jmp	0x3b40	; 0x3b40 <__epilogue_restores__+0x1c>

0000354e <vfprintf>:
    354e:	ab e0       	ldi	r26, 0x0B	; 11
    3550:	b0 e0       	ldi	r27, 0x00	; 0
    3552:	ed ea       	ldi	r30, 0xAD	; 173
    3554:	fa e1       	ldi	r31, 0x1A	; 26
    3556:	0c 94 76 1d 	jmp	0x3aec	; 0x3aec <__prologue_saves__>
    355a:	6c 01       	movw	r12, r24
    355c:	7b 01       	movw	r14, r22
    355e:	8a 01       	movw	r16, r20
    3560:	fc 01       	movw	r30, r24
    3562:	17 82       	std	Z+7, r1	; 0x07
    3564:	16 82       	std	Z+6, r1	; 0x06
    3566:	83 81       	ldd	r24, Z+3	; 0x03
    3568:	81 ff       	sbrs	r24, 1
    356a:	cc c1       	rjmp	.+920    	; 0x3904 <vfprintf+0x3b6>
    356c:	ce 01       	movw	r24, r28
    356e:	01 96       	adiw	r24, 0x01	; 1
    3570:	3c 01       	movw	r6, r24
    3572:	f6 01       	movw	r30, r12
    3574:	93 81       	ldd	r25, Z+3	; 0x03
    3576:	f7 01       	movw	r30, r14
    3578:	93 fd       	sbrc	r25, 3
    357a:	85 91       	lpm	r24, Z+
    357c:	93 ff       	sbrs	r25, 3
    357e:	81 91       	ld	r24, Z+
    3580:	7f 01       	movw	r14, r30
    3582:	88 23       	and	r24, r24
    3584:	09 f4       	brne	.+2      	; 0x3588 <vfprintf+0x3a>
    3586:	ba c1       	rjmp	.+884    	; 0x38fc <vfprintf+0x3ae>
    3588:	85 32       	cpi	r24, 0x25	; 37
    358a:	39 f4       	brne	.+14     	; 0x359a <vfprintf+0x4c>
    358c:	93 fd       	sbrc	r25, 3
    358e:	85 91       	lpm	r24, Z+
    3590:	93 ff       	sbrs	r25, 3
    3592:	81 91       	ld	r24, Z+
    3594:	7f 01       	movw	r14, r30
    3596:	85 32       	cpi	r24, 0x25	; 37
    3598:	29 f4       	brne	.+10     	; 0x35a4 <vfprintf+0x56>
    359a:	b6 01       	movw	r22, r12
    359c:	90 e0       	ldi	r25, 0x00	; 0
    359e:	0e 94 9e 1c 	call	0x393c	; 0x393c <fputc>
    35a2:	e7 cf       	rjmp	.-50     	; 0x3572 <vfprintf+0x24>
    35a4:	91 2c       	mov	r9, r1
    35a6:	21 2c       	mov	r2, r1
    35a8:	31 2c       	mov	r3, r1
    35aa:	ff e1       	ldi	r31, 0x1F	; 31
    35ac:	f3 15       	cp	r31, r3
    35ae:	d8 f0       	brcs	.+54     	; 0x35e6 <vfprintf+0x98>
    35b0:	8b 32       	cpi	r24, 0x2B	; 43
    35b2:	79 f0       	breq	.+30     	; 0x35d2 <vfprintf+0x84>
    35b4:	38 f4       	brcc	.+14     	; 0x35c4 <vfprintf+0x76>
    35b6:	80 32       	cpi	r24, 0x20	; 32
    35b8:	79 f0       	breq	.+30     	; 0x35d8 <vfprintf+0x8a>
    35ba:	83 32       	cpi	r24, 0x23	; 35
    35bc:	a1 f4       	brne	.+40     	; 0x35e6 <vfprintf+0x98>
    35be:	23 2d       	mov	r18, r3
    35c0:	20 61       	ori	r18, 0x10	; 16
    35c2:	1d c0       	rjmp	.+58     	; 0x35fe <vfprintf+0xb0>
    35c4:	8d 32       	cpi	r24, 0x2D	; 45
    35c6:	61 f0       	breq	.+24     	; 0x35e0 <vfprintf+0x92>
    35c8:	80 33       	cpi	r24, 0x30	; 48
    35ca:	69 f4       	brne	.+26     	; 0x35e6 <vfprintf+0x98>
    35cc:	23 2d       	mov	r18, r3
    35ce:	21 60       	ori	r18, 0x01	; 1
    35d0:	16 c0       	rjmp	.+44     	; 0x35fe <vfprintf+0xb0>
    35d2:	83 2d       	mov	r24, r3
    35d4:	82 60       	ori	r24, 0x02	; 2
    35d6:	38 2e       	mov	r3, r24
    35d8:	e3 2d       	mov	r30, r3
    35da:	e4 60       	ori	r30, 0x04	; 4
    35dc:	3e 2e       	mov	r3, r30
    35de:	2a c0       	rjmp	.+84     	; 0x3634 <vfprintf+0xe6>
    35e0:	f3 2d       	mov	r31, r3
    35e2:	f8 60       	ori	r31, 0x08	; 8
    35e4:	1d c0       	rjmp	.+58     	; 0x3620 <vfprintf+0xd2>
    35e6:	37 fc       	sbrc	r3, 7
    35e8:	2d c0       	rjmp	.+90     	; 0x3644 <vfprintf+0xf6>
    35ea:	20 ed       	ldi	r18, 0xD0	; 208
    35ec:	28 0f       	add	r18, r24
    35ee:	2a 30       	cpi	r18, 0x0A	; 10
    35f0:	40 f0       	brcs	.+16     	; 0x3602 <vfprintf+0xb4>
    35f2:	8e 32       	cpi	r24, 0x2E	; 46
    35f4:	b9 f4       	brne	.+46     	; 0x3624 <vfprintf+0xd6>
    35f6:	36 fc       	sbrc	r3, 6
    35f8:	81 c1       	rjmp	.+770    	; 0x38fc <vfprintf+0x3ae>
    35fa:	23 2d       	mov	r18, r3
    35fc:	20 64       	ori	r18, 0x40	; 64
    35fe:	32 2e       	mov	r3, r18
    3600:	19 c0       	rjmp	.+50     	; 0x3634 <vfprintf+0xe6>
    3602:	36 fe       	sbrs	r3, 6
    3604:	06 c0       	rjmp	.+12     	; 0x3612 <vfprintf+0xc4>
    3606:	8a e0       	ldi	r24, 0x0A	; 10
    3608:	98 9e       	mul	r9, r24
    360a:	20 0d       	add	r18, r0
    360c:	11 24       	eor	r1, r1
    360e:	92 2e       	mov	r9, r18
    3610:	11 c0       	rjmp	.+34     	; 0x3634 <vfprintf+0xe6>
    3612:	ea e0       	ldi	r30, 0x0A	; 10
    3614:	2e 9e       	mul	r2, r30
    3616:	20 0d       	add	r18, r0
    3618:	11 24       	eor	r1, r1
    361a:	22 2e       	mov	r2, r18
    361c:	f3 2d       	mov	r31, r3
    361e:	f0 62       	ori	r31, 0x20	; 32
    3620:	3f 2e       	mov	r3, r31
    3622:	08 c0       	rjmp	.+16     	; 0x3634 <vfprintf+0xe6>
    3624:	8c 36       	cpi	r24, 0x6C	; 108
    3626:	21 f4       	brne	.+8      	; 0x3630 <vfprintf+0xe2>
    3628:	83 2d       	mov	r24, r3
    362a:	80 68       	ori	r24, 0x80	; 128
    362c:	38 2e       	mov	r3, r24
    362e:	02 c0       	rjmp	.+4      	; 0x3634 <vfprintf+0xe6>
    3630:	88 36       	cpi	r24, 0x68	; 104
    3632:	41 f4       	brne	.+16     	; 0x3644 <vfprintf+0xf6>
    3634:	f7 01       	movw	r30, r14
    3636:	93 fd       	sbrc	r25, 3
    3638:	85 91       	lpm	r24, Z+
    363a:	93 ff       	sbrs	r25, 3
    363c:	81 91       	ld	r24, Z+
    363e:	7f 01       	movw	r14, r30
    3640:	81 11       	cpse	r24, r1
    3642:	b3 cf       	rjmp	.-154    	; 0x35aa <vfprintf+0x5c>
    3644:	98 2f       	mov	r25, r24
    3646:	9f 7d       	andi	r25, 0xDF	; 223
    3648:	95 54       	subi	r25, 0x45	; 69
    364a:	93 30       	cpi	r25, 0x03	; 3
    364c:	28 f4       	brcc	.+10     	; 0x3658 <vfprintf+0x10a>
    364e:	0c 5f       	subi	r16, 0xFC	; 252
    3650:	1f 4f       	sbci	r17, 0xFF	; 255
    3652:	9f e3       	ldi	r25, 0x3F	; 63
    3654:	99 83       	std	Y+1, r25	; 0x01
    3656:	0d c0       	rjmp	.+26     	; 0x3672 <vfprintf+0x124>
    3658:	83 36       	cpi	r24, 0x63	; 99
    365a:	31 f0       	breq	.+12     	; 0x3668 <vfprintf+0x11a>
    365c:	83 37       	cpi	r24, 0x73	; 115
    365e:	71 f0       	breq	.+28     	; 0x367c <vfprintf+0x12e>
    3660:	83 35       	cpi	r24, 0x53	; 83
    3662:	09 f0       	breq	.+2      	; 0x3666 <vfprintf+0x118>
    3664:	59 c0       	rjmp	.+178    	; 0x3718 <vfprintf+0x1ca>
    3666:	21 c0       	rjmp	.+66     	; 0x36aa <vfprintf+0x15c>
    3668:	f8 01       	movw	r30, r16
    366a:	80 81       	ld	r24, Z
    366c:	89 83       	std	Y+1, r24	; 0x01
    366e:	0e 5f       	subi	r16, 0xFE	; 254
    3670:	1f 4f       	sbci	r17, 0xFF	; 255
    3672:	88 24       	eor	r8, r8
    3674:	83 94       	inc	r8
    3676:	91 2c       	mov	r9, r1
    3678:	53 01       	movw	r10, r6
    367a:	13 c0       	rjmp	.+38     	; 0x36a2 <vfprintf+0x154>
    367c:	28 01       	movw	r4, r16
    367e:	f2 e0       	ldi	r31, 0x02	; 2
    3680:	4f 0e       	add	r4, r31
    3682:	51 1c       	adc	r5, r1
    3684:	f8 01       	movw	r30, r16
    3686:	a0 80       	ld	r10, Z
    3688:	b1 80       	ldd	r11, Z+1	; 0x01
    368a:	36 fe       	sbrs	r3, 6
    368c:	03 c0       	rjmp	.+6      	; 0x3694 <vfprintf+0x146>
    368e:	69 2d       	mov	r22, r9
    3690:	70 e0       	ldi	r23, 0x00	; 0
    3692:	02 c0       	rjmp	.+4      	; 0x3698 <vfprintf+0x14a>
    3694:	6f ef       	ldi	r22, 0xFF	; 255
    3696:	7f ef       	ldi	r23, 0xFF	; 255
    3698:	c5 01       	movw	r24, r10
    369a:	0e 94 93 1c 	call	0x3926	; 0x3926 <strnlen>
    369e:	4c 01       	movw	r8, r24
    36a0:	82 01       	movw	r16, r4
    36a2:	f3 2d       	mov	r31, r3
    36a4:	ff 77       	andi	r31, 0x7F	; 127
    36a6:	3f 2e       	mov	r3, r31
    36a8:	16 c0       	rjmp	.+44     	; 0x36d6 <vfprintf+0x188>
    36aa:	28 01       	movw	r4, r16
    36ac:	22 e0       	ldi	r18, 0x02	; 2
    36ae:	42 0e       	add	r4, r18
    36b0:	51 1c       	adc	r5, r1
    36b2:	f8 01       	movw	r30, r16
    36b4:	a0 80       	ld	r10, Z
    36b6:	b1 80       	ldd	r11, Z+1	; 0x01
    36b8:	36 fe       	sbrs	r3, 6
    36ba:	03 c0       	rjmp	.+6      	; 0x36c2 <vfprintf+0x174>
    36bc:	69 2d       	mov	r22, r9
    36be:	70 e0       	ldi	r23, 0x00	; 0
    36c0:	02 c0       	rjmp	.+4      	; 0x36c6 <vfprintf+0x178>
    36c2:	6f ef       	ldi	r22, 0xFF	; 255
    36c4:	7f ef       	ldi	r23, 0xFF	; 255
    36c6:	c5 01       	movw	r24, r10
    36c8:	0e 94 88 1c 	call	0x3910	; 0x3910 <strnlen_P>
    36cc:	4c 01       	movw	r8, r24
    36ce:	f3 2d       	mov	r31, r3
    36d0:	f0 68       	ori	r31, 0x80	; 128
    36d2:	3f 2e       	mov	r3, r31
    36d4:	82 01       	movw	r16, r4
    36d6:	33 fc       	sbrc	r3, 3
    36d8:	1b c0       	rjmp	.+54     	; 0x3710 <vfprintf+0x1c2>
    36da:	82 2d       	mov	r24, r2
    36dc:	90 e0       	ldi	r25, 0x00	; 0
    36de:	88 16       	cp	r8, r24
    36e0:	99 06       	cpc	r9, r25
    36e2:	b0 f4       	brcc	.+44     	; 0x3710 <vfprintf+0x1c2>
    36e4:	b6 01       	movw	r22, r12
    36e6:	80 e2       	ldi	r24, 0x20	; 32
    36e8:	90 e0       	ldi	r25, 0x00	; 0
    36ea:	0e 94 9e 1c 	call	0x393c	; 0x393c <fputc>
    36ee:	2a 94       	dec	r2
    36f0:	f4 cf       	rjmp	.-24     	; 0x36da <vfprintf+0x18c>
    36f2:	f5 01       	movw	r30, r10
    36f4:	37 fc       	sbrc	r3, 7
    36f6:	85 91       	lpm	r24, Z+
    36f8:	37 fe       	sbrs	r3, 7
    36fa:	81 91       	ld	r24, Z+
    36fc:	5f 01       	movw	r10, r30
    36fe:	b6 01       	movw	r22, r12
    3700:	90 e0       	ldi	r25, 0x00	; 0
    3702:	0e 94 9e 1c 	call	0x393c	; 0x393c <fputc>
    3706:	21 10       	cpse	r2, r1
    3708:	2a 94       	dec	r2
    370a:	21 e0       	ldi	r18, 0x01	; 1
    370c:	82 1a       	sub	r8, r18
    370e:	91 08       	sbc	r9, r1
    3710:	81 14       	cp	r8, r1
    3712:	91 04       	cpc	r9, r1
    3714:	71 f7       	brne	.-36     	; 0x36f2 <vfprintf+0x1a4>
    3716:	e8 c0       	rjmp	.+464    	; 0x38e8 <vfprintf+0x39a>
    3718:	84 36       	cpi	r24, 0x64	; 100
    371a:	11 f0       	breq	.+4      	; 0x3720 <vfprintf+0x1d2>
    371c:	89 36       	cpi	r24, 0x69	; 105
    371e:	41 f5       	brne	.+80     	; 0x3770 <vfprintf+0x222>
    3720:	f8 01       	movw	r30, r16
    3722:	37 fe       	sbrs	r3, 7
    3724:	07 c0       	rjmp	.+14     	; 0x3734 <vfprintf+0x1e6>
    3726:	60 81       	ld	r22, Z
    3728:	71 81       	ldd	r23, Z+1	; 0x01
    372a:	82 81       	ldd	r24, Z+2	; 0x02
    372c:	93 81       	ldd	r25, Z+3	; 0x03
    372e:	0c 5f       	subi	r16, 0xFC	; 252
    3730:	1f 4f       	sbci	r17, 0xFF	; 255
    3732:	08 c0       	rjmp	.+16     	; 0x3744 <vfprintf+0x1f6>
    3734:	60 81       	ld	r22, Z
    3736:	71 81       	ldd	r23, Z+1	; 0x01
    3738:	07 2e       	mov	r0, r23
    373a:	00 0c       	add	r0, r0
    373c:	88 0b       	sbc	r24, r24
    373e:	99 0b       	sbc	r25, r25
    3740:	0e 5f       	subi	r16, 0xFE	; 254
    3742:	1f 4f       	sbci	r17, 0xFF	; 255
    3744:	f3 2d       	mov	r31, r3
    3746:	ff 76       	andi	r31, 0x6F	; 111
    3748:	3f 2e       	mov	r3, r31
    374a:	97 ff       	sbrs	r25, 7
    374c:	09 c0       	rjmp	.+18     	; 0x3760 <vfprintf+0x212>
    374e:	90 95       	com	r25
    3750:	80 95       	com	r24
    3752:	70 95       	com	r23
    3754:	61 95       	neg	r22
    3756:	7f 4f       	sbci	r23, 0xFF	; 255
    3758:	8f 4f       	sbci	r24, 0xFF	; 255
    375a:	9f 4f       	sbci	r25, 0xFF	; 255
    375c:	f0 68       	ori	r31, 0x80	; 128
    375e:	3f 2e       	mov	r3, r31
    3760:	2a e0       	ldi	r18, 0x0A	; 10
    3762:	30 e0       	ldi	r19, 0x00	; 0
    3764:	a3 01       	movw	r20, r6
    3766:	0e 94 da 1c 	call	0x39b4	; 0x39b4 <__ultoa_invert>
    376a:	88 2e       	mov	r8, r24
    376c:	86 18       	sub	r8, r6
    376e:	45 c0       	rjmp	.+138    	; 0x37fa <vfprintf+0x2ac>
    3770:	85 37       	cpi	r24, 0x75	; 117
    3772:	31 f4       	brne	.+12     	; 0x3780 <vfprintf+0x232>
    3774:	23 2d       	mov	r18, r3
    3776:	2f 7e       	andi	r18, 0xEF	; 239
    3778:	b2 2e       	mov	r11, r18
    377a:	2a e0       	ldi	r18, 0x0A	; 10
    377c:	30 e0       	ldi	r19, 0x00	; 0
    377e:	25 c0       	rjmp	.+74     	; 0x37ca <vfprintf+0x27c>
    3780:	93 2d       	mov	r25, r3
    3782:	99 7f       	andi	r25, 0xF9	; 249
    3784:	b9 2e       	mov	r11, r25
    3786:	8f 36       	cpi	r24, 0x6F	; 111
    3788:	c1 f0       	breq	.+48     	; 0x37ba <vfprintf+0x26c>
    378a:	18 f4       	brcc	.+6      	; 0x3792 <vfprintf+0x244>
    378c:	88 35       	cpi	r24, 0x58	; 88
    378e:	79 f0       	breq	.+30     	; 0x37ae <vfprintf+0x260>
    3790:	b5 c0       	rjmp	.+362    	; 0x38fc <vfprintf+0x3ae>
    3792:	80 37       	cpi	r24, 0x70	; 112
    3794:	19 f0       	breq	.+6      	; 0x379c <vfprintf+0x24e>
    3796:	88 37       	cpi	r24, 0x78	; 120
    3798:	21 f0       	breq	.+8      	; 0x37a2 <vfprintf+0x254>
    379a:	b0 c0       	rjmp	.+352    	; 0x38fc <vfprintf+0x3ae>
    379c:	e9 2f       	mov	r30, r25
    379e:	e0 61       	ori	r30, 0x10	; 16
    37a0:	be 2e       	mov	r11, r30
    37a2:	b4 fe       	sbrs	r11, 4
    37a4:	0d c0       	rjmp	.+26     	; 0x37c0 <vfprintf+0x272>
    37a6:	fb 2d       	mov	r31, r11
    37a8:	f4 60       	ori	r31, 0x04	; 4
    37aa:	bf 2e       	mov	r11, r31
    37ac:	09 c0       	rjmp	.+18     	; 0x37c0 <vfprintf+0x272>
    37ae:	34 fe       	sbrs	r3, 4
    37b0:	0a c0       	rjmp	.+20     	; 0x37c6 <vfprintf+0x278>
    37b2:	29 2f       	mov	r18, r25
    37b4:	26 60       	ori	r18, 0x06	; 6
    37b6:	b2 2e       	mov	r11, r18
    37b8:	06 c0       	rjmp	.+12     	; 0x37c6 <vfprintf+0x278>
    37ba:	28 e0       	ldi	r18, 0x08	; 8
    37bc:	30 e0       	ldi	r19, 0x00	; 0
    37be:	05 c0       	rjmp	.+10     	; 0x37ca <vfprintf+0x27c>
    37c0:	20 e1       	ldi	r18, 0x10	; 16
    37c2:	30 e0       	ldi	r19, 0x00	; 0
    37c4:	02 c0       	rjmp	.+4      	; 0x37ca <vfprintf+0x27c>
    37c6:	20 e1       	ldi	r18, 0x10	; 16
    37c8:	32 e0       	ldi	r19, 0x02	; 2
    37ca:	f8 01       	movw	r30, r16
    37cc:	b7 fe       	sbrs	r11, 7
    37ce:	07 c0       	rjmp	.+14     	; 0x37de <vfprintf+0x290>
    37d0:	60 81       	ld	r22, Z
    37d2:	71 81       	ldd	r23, Z+1	; 0x01
    37d4:	82 81       	ldd	r24, Z+2	; 0x02
    37d6:	93 81       	ldd	r25, Z+3	; 0x03
    37d8:	0c 5f       	subi	r16, 0xFC	; 252
    37da:	1f 4f       	sbci	r17, 0xFF	; 255
    37dc:	06 c0       	rjmp	.+12     	; 0x37ea <vfprintf+0x29c>
    37de:	60 81       	ld	r22, Z
    37e0:	71 81       	ldd	r23, Z+1	; 0x01
    37e2:	80 e0       	ldi	r24, 0x00	; 0
    37e4:	90 e0       	ldi	r25, 0x00	; 0
    37e6:	0e 5f       	subi	r16, 0xFE	; 254
    37e8:	1f 4f       	sbci	r17, 0xFF	; 255
    37ea:	a3 01       	movw	r20, r6
    37ec:	0e 94 da 1c 	call	0x39b4	; 0x39b4 <__ultoa_invert>
    37f0:	88 2e       	mov	r8, r24
    37f2:	86 18       	sub	r8, r6
    37f4:	fb 2d       	mov	r31, r11
    37f6:	ff 77       	andi	r31, 0x7F	; 127
    37f8:	3f 2e       	mov	r3, r31
    37fa:	36 fe       	sbrs	r3, 6
    37fc:	0d c0       	rjmp	.+26     	; 0x3818 <vfprintf+0x2ca>
    37fe:	23 2d       	mov	r18, r3
    3800:	2e 7f       	andi	r18, 0xFE	; 254
    3802:	a2 2e       	mov	r10, r18
    3804:	89 14       	cp	r8, r9
    3806:	58 f4       	brcc	.+22     	; 0x381e <vfprintf+0x2d0>
    3808:	34 fe       	sbrs	r3, 4
    380a:	0b c0       	rjmp	.+22     	; 0x3822 <vfprintf+0x2d4>
    380c:	32 fc       	sbrc	r3, 2
    380e:	09 c0       	rjmp	.+18     	; 0x3822 <vfprintf+0x2d4>
    3810:	83 2d       	mov	r24, r3
    3812:	8e 7e       	andi	r24, 0xEE	; 238
    3814:	a8 2e       	mov	r10, r24
    3816:	05 c0       	rjmp	.+10     	; 0x3822 <vfprintf+0x2d4>
    3818:	b8 2c       	mov	r11, r8
    381a:	a3 2c       	mov	r10, r3
    381c:	03 c0       	rjmp	.+6      	; 0x3824 <vfprintf+0x2d6>
    381e:	b8 2c       	mov	r11, r8
    3820:	01 c0       	rjmp	.+2      	; 0x3824 <vfprintf+0x2d6>
    3822:	b9 2c       	mov	r11, r9
    3824:	a4 fe       	sbrs	r10, 4
    3826:	0f c0       	rjmp	.+30     	; 0x3846 <vfprintf+0x2f8>
    3828:	fe 01       	movw	r30, r28
    382a:	e8 0d       	add	r30, r8
    382c:	f1 1d       	adc	r31, r1
    382e:	80 81       	ld	r24, Z
    3830:	80 33       	cpi	r24, 0x30	; 48
    3832:	21 f4       	brne	.+8      	; 0x383c <vfprintf+0x2ee>
    3834:	9a 2d       	mov	r25, r10
    3836:	99 7e       	andi	r25, 0xE9	; 233
    3838:	a9 2e       	mov	r10, r25
    383a:	09 c0       	rjmp	.+18     	; 0x384e <vfprintf+0x300>
    383c:	a2 fe       	sbrs	r10, 2
    383e:	06 c0       	rjmp	.+12     	; 0x384c <vfprintf+0x2fe>
    3840:	b3 94       	inc	r11
    3842:	b3 94       	inc	r11
    3844:	04 c0       	rjmp	.+8      	; 0x384e <vfprintf+0x300>
    3846:	8a 2d       	mov	r24, r10
    3848:	86 78       	andi	r24, 0x86	; 134
    384a:	09 f0       	breq	.+2      	; 0x384e <vfprintf+0x300>
    384c:	b3 94       	inc	r11
    384e:	a3 fc       	sbrc	r10, 3
    3850:	11 c0       	rjmp	.+34     	; 0x3874 <vfprintf+0x326>
    3852:	a0 fe       	sbrs	r10, 0
    3854:	06 c0       	rjmp	.+12     	; 0x3862 <vfprintf+0x314>
    3856:	b2 14       	cp	r11, r2
    3858:	88 f4       	brcc	.+34     	; 0x387c <vfprintf+0x32e>
    385a:	28 0c       	add	r2, r8
    385c:	92 2c       	mov	r9, r2
    385e:	9b 18       	sub	r9, r11
    3860:	0e c0       	rjmp	.+28     	; 0x387e <vfprintf+0x330>
    3862:	b2 14       	cp	r11, r2
    3864:	60 f4       	brcc	.+24     	; 0x387e <vfprintf+0x330>
    3866:	b6 01       	movw	r22, r12
    3868:	80 e2       	ldi	r24, 0x20	; 32
    386a:	90 e0       	ldi	r25, 0x00	; 0
    386c:	0e 94 9e 1c 	call	0x393c	; 0x393c <fputc>
    3870:	b3 94       	inc	r11
    3872:	f7 cf       	rjmp	.-18     	; 0x3862 <vfprintf+0x314>
    3874:	b2 14       	cp	r11, r2
    3876:	18 f4       	brcc	.+6      	; 0x387e <vfprintf+0x330>
    3878:	2b 18       	sub	r2, r11
    387a:	02 c0       	rjmp	.+4      	; 0x3880 <vfprintf+0x332>
    387c:	98 2c       	mov	r9, r8
    387e:	21 2c       	mov	r2, r1
    3880:	a4 fe       	sbrs	r10, 4
    3882:	10 c0       	rjmp	.+32     	; 0x38a4 <vfprintf+0x356>
    3884:	b6 01       	movw	r22, r12
    3886:	80 e3       	ldi	r24, 0x30	; 48
    3888:	90 e0       	ldi	r25, 0x00	; 0
    388a:	0e 94 9e 1c 	call	0x393c	; 0x393c <fputc>
    388e:	a2 fe       	sbrs	r10, 2
    3890:	17 c0       	rjmp	.+46     	; 0x38c0 <vfprintf+0x372>
    3892:	a1 fc       	sbrc	r10, 1
    3894:	03 c0       	rjmp	.+6      	; 0x389c <vfprintf+0x34e>
    3896:	88 e7       	ldi	r24, 0x78	; 120
    3898:	90 e0       	ldi	r25, 0x00	; 0
    389a:	02 c0       	rjmp	.+4      	; 0x38a0 <vfprintf+0x352>
    389c:	88 e5       	ldi	r24, 0x58	; 88
    389e:	90 e0       	ldi	r25, 0x00	; 0
    38a0:	b6 01       	movw	r22, r12
    38a2:	0c c0       	rjmp	.+24     	; 0x38bc <vfprintf+0x36e>
    38a4:	8a 2d       	mov	r24, r10
    38a6:	86 78       	andi	r24, 0x86	; 134
    38a8:	59 f0       	breq	.+22     	; 0x38c0 <vfprintf+0x372>
    38aa:	a1 fe       	sbrs	r10, 1
    38ac:	02 c0       	rjmp	.+4      	; 0x38b2 <vfprintf+0x364>
    38ae:	8b e2       	ldi	r24, 0x2B	; 43
    38b0:	01 c0       	rjmp	.+2      	; 0x38b4 <vfprintf+0x366>
    38b2:	80 e2       	ldi	r24, 0x20	; 32
    38b4:	a7 fc       	sbrc	r10, 7
    38b6:	8d e2       	ldi	r24, 0x2D	; 45
    38b8:	b6 01       	movw	r22, r12
    38ba:	90 e0       	ldi	r25, 0x00	; 0
    38bc:	0e 94 9e 1c 	call	0x393c	; 0x393c <fputc>
    38c0:	89 14       	cp	r8, r9
    38c2:	38 f4       	brcc	.+14     	; 0x38d2 <vfprintf+0x384>
    38c4:	b6 01       	movw	r22, r12
    38c6:	80 e3       	ldi	r24, 0x30	; 48
    38c8:	90 e0       	ldi	r25, 0x00	; 0
    38ca:	0e 94 9e 1c 	call	0x393c	; 0x393c <fputc>
    38ce:	9a 94       	dec	r9
    38d0:	f7 cf       	rjmp	.-18     	; 0x38c0 <vfprintf+0x372>
    38d2:	8a 94       	dec	r8
    38d4:	f3 01       	movw	r30, r6
    38d6:	e8 0d       	add	r30, r8
    38d8:	f1 1d       	adc	r31, r1
    38da:	80 81       	ld	r24, Z
    38dc:	b6 01       	movw	r22, r12
    38de:	90 e0       	ldi	r25, 0x00	; 0
    38e0:	0e 94 9e 1c 	call	0x393c	; 0x393c <fputc>
    38e4:	81 10       	cpse	r8, r1
    38e6:	f5 cf       	rjmp	.-22     	; 0x38d2 <vfprintf+0x384>
    38e8:	22 20       	and	r2, r2
    38ea:	09 f4       	brne	.+2      	; 0x38ee <vfprintf+0x3a0>
    38ec:	42 ce       	rjmp	.-892    	; 0x3572 <vfprintf+0x24>
    38ee:	b6 01       	movw	r22, r12
    38f0:	80 e2       	ldi	r24, 0x20	; 32
    38f2:	90 e0       	ldi	r25, 0x00	; 0
    38f4:	0e 94 9e 1c 	call	0x393c	; 0x393c <fputc>
    38f8:	2a 94       	dec	r2
    38fa:	f6 cf       	rjmp	.-20     	; 0x38e8 <vfprintf+0x39a>
    38fc:	f6 01       	movw	r30, r12
    38fe:	86 81       	ldd	r24, Z+6	; 0x06
    3900:	97 81       	ldd	r25, Z+7	; 0x07
    3902:	02 c0       	rjmp	.+4      	; 0x3908 <vfprintf+0x3ba>
    3904:	8f ef       	ldi	r24, 0xFF	; 255
    3906:	9f ef       	ldi	r25, 0xFF	; 255
    3908:	2b 96       	adiw	r28, 0x0b	; 11
    390a:	e2 e1       	ldi	r30, 0x12	; 18
    390c:	0c 94 92 1d 	jmp	0x3b24	; 0x3b24 <__epilogue_restores__>

00003910 <strnlen_P>:
    3910:	fc 01       	movw	r30, r24
    3912:	05 90       	lpm	r0, Z+
    3914:	61 50       	subi	r22, 0x01	; 1
    3916:	70 40       	sbci	r23, 0x00	; 0
    3918:	01 10       	cpse	r0, r1
    391a:	d8 f7       	brcc	.-10     	; 0x3912 <strnlen_P+0x2>
    391c:	80 95       	com	r24
    391e:	90 95       	com	r25
    3920:	8e 0f       	add	r24, r30
    3922:	9f 1f       	adc	r25, r31
    3924:	08 95       	ret

00003926 <strnlen>:
    3926:	fc 01       	movw	r30, r24
    3928:	61 50       	subi	r22, 0x01	; 1
    392a:	70 40       	sbci	r23, 0x00	; 0
    392c:	01 90       	ld	r0, Z+
    392e:	01 10       	cpse	r0, r1
    3930:	d8 f7       	brcc	.-10     	; 0x3928 <strnlen+0x2>
    3932:	80 95       	com	r24
    3934:	90 95       	com	r25
    3936:	8e 0f       	add	r24, r30
    3938:	9f 1f       	adc	r25, r31
    393a:	08 95       	ret

0000393c <fputc>:
    393c:	0f 93       	push	r16
    393e:	1f 93       	push	r17
    3940:	cf 93       	push	r28
    3942:	df 93       	push	r29
    3944:	fb 01       	movw	r30, r22
    3946:	23 81       	ldd	r18, Z+3	; 0x03
    3948:	21 fd       	sbrc	r18, 1
    394a:	03 c0       	rjmp	.+6      	; 0x3952 <fputc+0x16>
    394c:	8f ef       	ldi	r24, 0xFF	; 255
    394e:	9f ef       	ldi	r25, 0xFF	; 255
    3950:	2c c0       	rjmp	.+88     	; 0x39aa <fputc+0x6e>
    3952:	22 ff       	sbrs	r18, 2
    3954:	16 c0       	rjmp	.+44     	; 0x3982 <fputc+0x46>
    3956:	46 81       	ldd	r20, Z+6	; 0x06
    3958:	57 81       	ldd	r21, Z+7	; 0x07
    395a:	24 81       	ldd	r18, Z+4	; 0x04
    395c:	35 81       	ldd	r19, Z+5	; 0x05
    395e:	42 17       	cp	r20, r18
    3960:	53 07       	cpc	r21, r19
    3962:	44 f4       	brge	.+16     	; 0x3974 <fputc+0x38>
    3964:	a0 81       	ld	r26, Z
    3966:	b1 81       	ldd	r27, Z+1	; 0x01
    3968:	9d 01       	movw	r18, r26
    396a:	2f 5f       	subi	r18, 0xFF	; 255
    396c:	3f 4f       	sbci	r19, 0xFF	; 255
    396e:	31 83       	std	Z+1, r19	; 0x01
    3970:	20 83       	st	Z, r18
    3972:	8c 93       	st	X, r24
    3974:	26 81       	ldd	r18, Z+6	; 0x06
    3976:	37 81       	ldd	r19, Z+7	; 0x07
    3978:	2f 5f       	subi	r18, 0xFF	; 255
    397a:	3f 4f       	sbci	r19, 0xFF	; 255
    397c:	37 83       	std	Z+7, r19	; 0x07
    397e:	26 83       	std	Z+6, r18	; 0x06
    3980:	14 c0       	rjmp	.+40     	; 0x39aa <fputc+0x6e>
    3982:	8b 01       	movw	r16, r22
    3984:	ec 01       	movw	r28, r24
    3986:	fb 01       	movw	r30, r22
    3988:	00 84       	ldd	r0, Z+8	; 0x08
    398a:	f1 85       	ldd	r31, Z+9	; 0x09
    398c:	e0 2d       	mov	r30, r0
    398e:	09 95       	icall
    3990:	89 2b       	or	r24, r25
    3992:	e1 f6       	brne	.-72     	; 0x394c <fputc+0x10>
    3994:	d8 01       	movw	r26, r16
    3996:	16 96       	adiw	r26, 0x06	; 6
    3998:	8d 91       	ld	r24, X+
    399a:	9c 91       	ld	r25, X
    399c:	17 97       	sbiw	r26, 0x07	; 7
    399e:	01 96       	adiw	r24, 0x01	; 1
    39a0:	17 96       	adiw	r26, 0x07	; 7
    39a2:	9c 93       	st	X, r25
    39a4:	8e 93       	st	-X, r24
    39a6:	16 97       	sbiw	r26, 0x06	; 6
    39a8:	ce 01       	movw	r24, r28
    39aa:	df 91       	pop	r29
    39ac:	cf 91       	pop	r28
    39ae:	1f 91       	pop	r17
    39b0:	0f 91       	pop	r16
    39b2:	08 95       	ret

000039b4 <__ultoa_invert>:
    39b4:	fa 01       	movw	r30, r20
    39b6:	aa 27       	eor	r26, r26
    39b8:	28 30       	cpi	r18, 0x08	; 8
    39ba:	51 f1       	breq	.+84     	; 0x3a10 <__ultoa_invert+0x5c>
    39bc:	20 31       	cpi	r18, 0x10	; 16
    39be:	81 f1       	breq	.+96     	; 0x3a20 <__ultoa_invert+0x6c>
    39c0:	e8 94       	clt
    39c2:	6f 93       	push	r22
    39c4:	6e 7f       	andi	r22, 0xFE	; 254
    39c6:	6e 5f       	subi	r22, 0xFE	; 254
    39c8:	7f 4f       	sbci	r23, 0xFF	; 255
    39ca:	8f 4f       	sbci	r24, 0xFF	; 255
    39cc:	9f 4f       	sbci	r25, 0xFF	; 255
    39ce:	af 4f       	sbci	r26, 0xFF	; 255
    39d0:	b1 e0       	ldi	r27, 0x01	; 1
    39d2:	3e d0       	rcall	.+124    	; 0x3a50 <__ultoa_invert+0x9c>
    39d4:	b4 e0       	ldi	r27, 0x04	; 4
    39d6:	3c d0       	rcall	.+120    	; 0x3a50 <__ultoa_invert+0x9c>
    39d8:	67 0f       	add	r22, r23
    39da:	78 1f       	adc	r23, r24
    39dc:	89 1f       	adc	r24, r25
    39de:	9a 1f       	adc	r25, r26
    39e0:	a1 1d       	adc	r26, r1
    39e2:	68 0f       	add	r22, r24
    39e4:	79 1f       	adc	r23, r25
    39e6:	8a 1f       	adc	r24, r26
    39e8:	91 1d       	adc	r25, r1
    39ea:	a1 1d       	adc	r26, r1
    39ec:	6a 0f       	add	r22, r26
    39ee:	71 1d       	adc	r23, r1
    39f0:	81 1d       	adc	r24, r1
    39f2:	91 1d       	adc	r25, r1
    39f4:	a1 1d       	adc	r26, r1
    39f6:	20 d0       	rcall	.+64     	; 0x3a38 <__ultoa_invert+0x84>
    39f8:	09 f4       	brne	.+2      	; 0x39fc <__ultoa_invert+0x48>
    39fa:	68 94       	set
    39fc:	3f 91       	pop	r19
    39fe:	2a e0       	ldi	r18, 0x0A	; 10
    3a00:	26 9f       	mul	r18, r22
    3a02:	11 24       	eor	r1, r1
    3a04:	30 19       	sub	r19, r0
    3a06:	30 5d       	subi	r19, 0xD0	; 208
    3a08:	31 93       	st	Z+, r19
    3a0a:	de f6       	brtc	.-74     	; 0x39c2 <__ultoa_invert+0xe>
    3a0c:	cf 01       	movw	r24, r30
    3a0e:	08 95       	ret
    3a10:	46 2f       	mov	r20, r22
    3a12:	47 70       	andi	r20, 0x07	; 7
    3a14:	40 5d       	subi	r20, 0xD0	; 208
    3a16:	41 93       	st	Z+, r20
    3a18:	b3 e0       	ldi	r27, 0x03	; 3
    3a1a:	0f d0       	rcall	.+30     	; 0x3a3a <__ultoa_invert+0x86>
    3a1c:	c9 f7       	brne	.-14     	; 0x3a10 <__ultoa_invert+0x5c>
    3a1e:	f6 cf       	rjmp	.-20     	; 0x3a0c <__ultoa_invert+0x58>
    3a20:	46 2f       	mov	r20, r22
    3a22:	4f 70       	andi	r20, 0x0F	; 15
    3a24:	40 5d       	subi	r20, 0xD0	; 208
    3a26:	4a 33       	cpi	r20, 0x3A	; 58
    3a28:	18 f0       	brcs	.+6      	; 0x3a30 <__ultoa_invert+0x7c>
    3a2a:	49 5d       	subi	r20, 0xD9	; 217
    3a2c:	31 fd       	sbrc	r19, 1
    3a2e:	40 52       	subi	r20, 0x20	; 32
    3a30:	41 93       	st	Z+, r20
    3a32:	02 d0       	rcall	.+4      	; 0x3a38 <__ultoa_invert+0x84>
    3a34:	a9 f7       	brne	.-22     	; 0x3a20 <__ultoa_invert+0x6c>
    3a36:	ea cf       	rjmp	.-44     	; 0x3a0c <__ultoa_invert+0x58>
    3a38:	b4 e0       	ldi	r27, 0x04	; 4
    3a3a:	a6 95       	lsr	r26
    3a3c:	97 95       	ror	r25
    3a3e:	87 95       	ror	r24
    3a40:	77 95       	ror	r23
    3a42:	67 95       	ror	r22
    3a44:	ba 95       	dec	r27
    3a46:	c9 f7       	brne	.-14     	; 0x3a3a <__ultoa_invert+0x86>
    3a48:	00 97       	sbiw	r24, 0x00	; 0
    3a4a:	61 05       	cpc	r22, r1
    3a4c:	71 05       	cpc	r23, r1
    3a4e:	08 95       	ret
    3a50:	9b 01       	movw	r18, r22
    3a52:	ac 01       	movw	r20, r24
    3a54:	0a 2e       	mov	r0, r26
    3a56:	06 94       	lsr	r0
    3a58:	57 95       	ror	r21
    3a5a:	47 95       	ror	r20
    3a5c:	37 95       	ror	r19
    3a5e:	27 95       	ror	r18
    3a60:	ba 95       	dec	r27
    3a62:	c9 f7       	brne	.-14     	; 0x3a56 <__ultoa_invert+0xa2>
    3a64:	62 0f       	add	r22, r18
    3a66:	73 1f       	adc	r23, r19
    3a68:	84 1f       	adc	r24, r20
    3a6a:	95 1f       	adc	r25, r21
    3a6c:	a0 1d       	adc	r26, r0
    3a6e:	08 95       	ret

00003a70 <eeprom_read_byte>:
    3a70:	e1 99       	sbic	0x1c, 1	; 28
    3a72:	fe cf       	rjmp	.-4      	; 0x3a70 <eeprom_read_byte>
    3a74:	9f bb       	out	0x1f, r25	; 31
    3a76:	8e bb       	out	0x1e, r24	; 30
    3a78:	e0 9a       	sbi	0x1c, 0	; 28
    3a7a:	99 27       	eor	r25, r25
    3a7c:	8d b3       	in	r24, 0x1d	; 29
    3a7e:	08 95       	ret

00003a80 <eeprom_read_dword>:
    3a80:	a6 e1       	ldi	r26, 0x16	; 22
    3a82:	b0 e0       	ldi	r27, 0x00	; 0
    3a84:	44 e0       	ldi	r20, 0x04	; 4
    3a86:	50 e0       	ldi	r21, 0x00	; 0
    3a88:	0c 94 68 1d 	jmp	0x3ad0	; 0x3ad0 <eeprom_read_blraw>

00003a8c <eeprom_read_word>:
    3a8c:	a8 e1       	ldi	r26, 0x18	; 24
    3a8e:	b0 e0       	ldi	r27, 0x00	; 0
    3a90:	42 e0       	ldi	r20, 0x02	; 2
    3a92:	50 e0       	ldi	r21, 0x00	; 0
    3a94:	0c 94 68 1d 	jmp	0x3ad0	; 0x3ad0 <eeprom_read_blraw>

00003a98 <eeprom_write_byte>:
    3a98:	26 2f       	mov	r18, r22

00003a9a <eeprom_write_r18>:
    3a9a:	e1 99       	sbic	0x1c, 1	; 28
    3a9c:	fe cf       	rjmp	.-4      	; 0x3a9a <eeprom_write_r18>
    3a9e:	9f bb       	out	0x1f, r25	; 31
    3aa0:	8e bb       	out	0x1e, r24	; 30
    3aa2:	2d bb       	out	0x1d, r18	; 29
    3aa4:	0f b6       	in	r0, 0x3f	; 63
    3aa6:	f8 94       	cli
    3aa8:	e2 9a       	sbi	0x1c, 2	; 28
    3aaa:	e1 9a       	sbi	0x1c, 1	; 28
    3aac:	0f be       	out	0x3f, r0	; 63
    3aae:	01 96       	adiw	r24, 0x01	; 1
    3ab0:	08 95       	ret

00003ab2 <eeprom_write_dword>:
    3ab2:	24 2f       	mov	r18, r20
    3ab4:	0e 94 4d 1d 	call	0x3a9a	; 0x3a9a <eeprom_write_r18>
    3ab8:	25 2f       	mov	r18, r21
    3aba:	0e 94 4d 1d 	call	0x3a9a	; 0x3a9a <eeprom_write_r18>
    3abe:	0c 94 61 1d 	jmp	0x3ac2	; 0x3ac2 <eeprom_write_word>

00003ac2 <eeprom_write_word>:
    3ac2:	0e 94 4c 1d 	call	0x3a98	; 0x3a98 <eeprom_write_byte>
    3ac6:	27 2f       	mov	r18, r23
    3ac8:	0c 94 4d 1d 	jmp	0x3a9a	; 0x3a9a <eeprom_write_r18>

00003acc <eeprom_read_block>:
    3acc:	dc 01       	movw	r26, r24
    3ace:	cb 01       	movw	r24, r22

00003ad0 <eeprom_read_blraw>:
    3ad0:	fc 01       	movw	r30, r24
    3ad2:	e1 99       	sbic	0x1c, 1	; 28
    3ad4:	fe cf       	rjmp	.-4      	; 0x3ad2 <eeprom_read_blraw+0x2>
    3ad6:	06 c0       	rjmp	.+12     	; 0x3ae4 <eeprom_read_blraw+0x14>
    3ad8:	ff bb       	out	0x1f, r31	; 31
    3ada:	ee bb       	out	0x1e, r30	; 30
    3adc:	e0 9a       	sbi	0x1c, 0	; 28
    3ade:	31 96       	adiw	r30, 0x01	; 1
    3ae0:	0d b2       	in	r0, 0x1d	; 29
    3ae2:	0d 92       	st	X+, r0
    3ae4:	41 50       	subi	r20, 0x01	; 1
    3ae6:	50 40       	sbci	r21, 0x00	; 0
    3ae8:	b8 f7       	brcc	.-18     	; 0x3ad8 <eeprom_read_blraw+0x8>
    3aea:	08 95       	ret

00003aec <__prologue_saves__>:
    3aec:	2f 92       	push	r2
    3aee:	3f 92       	push	r3
    3af0:	4f 92       	push	r4
    3af2:	5f 92       	push	r5
    3af4:	6f 92       	push	r6
    3af6:	7f 92       	push	r7
    3af8:	8f 92       	push	r8
    3afa:	9f 92       	push	r9
    3afc:	af 92       	push	r10
    3afe:	bf 92       	push	r11
    3b00:	cf 92       	push	r12
    3b02:	df 92       	push	r13
    3b04:	ef 92       	push	r14
    3b06:	ff 92       	push	r15
    3b08:	0f 93       	push	r16
    3b0a:	1f 93       	push	r17
    3b0c:	cf 93       	push	r28
    3b0e:	df 93       	push	r29
    3b10:	cd b7       	in	r28, 0x3d	; 61
    3b12:	de b7       	in	r29, 0x3e	; 62
    3b14:	ca 1b       	sub	r28, r26
    3b16:	db 0b       	sbc	r29, r27
    3b18:	0f b6       	in	r0, 0x3f	; 63
    3b1a:	f8 94       	cli
    3b1c:	de bf       	out	0x3e, r29	; 62
    3b1e:	0f be       	out	0x3f, r0	; 63
    3b20:	cd bf       	out	0x3d, r28	; 61
    3b22:	09 94       	ijmp

00003b24 <__epilogue_restores__>:
    3b24:	2a 88       	ldd	r2, Y+18	; 0x12
    3b26:	39 88       	ldd	r3, Y+17	; 0x11
    3b28:	48 88       	ldd	r4, Y+16	; 0x10
    3b2a:	5f 84       	ldd	r5, Y+15	; 0x0f
    3b2c:	6e 84       	ldd	r6, Y+14	; 0x0e
    3b2e:	7d 84       	ldd	r7, Y+13	; 0x0d
    3b30:	8c 84       	ldd	r8, Y+12	; 0x0c
    3b32:	9b 84       	ldd	r9, Y+11	; 0x0b
    3b34:	aa 84       	ldd	r10, Y+10	; 0x0a
    3b36:	b9 84       	ldd	r11, Y+9	; 0x09
    3b38:	c8 84       	ldd	r12, Y+8	; 0x08
    3b3a:	df 80       	ldd	r13, Y+7	; 0x07
    3b3c:	ee 80       	ldd	r14, Y+6	; 0x06
    3b3e:	fd 80       	ldd	r15, Y+5	; 0x05
    3b40:	0c 81       	ldd	r16, Y+4	; 0x04
    3b42:	1b 81       	ldd	r17, Y+3	; 0x03
    3b44:	aa 81       	ldd	r26, Y+2	; 0x02
    3b46:	b9 81       	ldd	r27, Y+1	; 0x01
    3b48:	ce 0f       	add	r28, r30
    3b4a:	d1 1d       	adc	r29, r1
    3b4c:	0f b6       	in	r0, 0x3f	; 63
    3b4e:	f8 94       	cli
    3b50:	de bf       	out	0x3e, r29	; 62
    3b52:	0f be       	out	0x3f, r0	; 63
    3b54:	cd bf       	out	0x3d, r28	; 61
    3b56:	ed 01       	movw	r28, r26
    3b58:	08 95       	ret

00003b5a <_exit>:
    3b5a:	f8 94       	cli

00003b5c <__stop_program>:
    3b5c:	ff cf       	rjmp	.-2      	; 0x3b5c <__stop_program>
